{
   <insert_a_suppression_name_here>
   Memcheck:Leak
   match-leak-kinds: definite
   fun:malloc_zone_malloc
   fun:__CFGetConverter
   fun:CFStringEncodingGetConverter
   fun:CFStringGetSystemEncoding
   fun:__CFInitialize
   fun:_ZN16ImageLoaderMachO11doImageInitERKN11ImageLoader11LinkContextE
   fun:_ZN16ImageLoaderMachO16doInitializationERKN11ImageLoader11LinkContextE
   fun:_ZN11ImageLoader23recursiveInitializationERKNS_11LinkContextEjRNS_21InitializerTimingListERNS_15UninitedUpwardsE
   fun:_ZN11ImageLoader23recursiveInitializationERKNS_11LinkContextEjRNS_21InitializerTimingListERNS_15UninitedUpwardsE
   fun:_ZN11ImageLoader23recursiveInitializationERKNS_11LinkContextEjRNS_21InitializerTimingListERNS_15UninitedUpwardsE
   fun:_ZN11ImageLoader23recursiveInitializationERKNS_11LinkContextEjRNS_21InitializerTimingListERNS_15UninitedUpwardsE
   fun:_ZN11ImageLoader23recursiveInitializationERKNS_11LinkContextEjRNS_21InitializerTimingListERNS_15UninitedUpwardsE
}
{
   <insert_a_suppression_name_here>
   Memcheck:Leak
   match-leak-kinds: possible
   fun:malloc
   fun:_ZL12realizeClassP10objc_class
   fun:_ZL12realizeClassP10objc_class
   fun:_ZL12realizeClassP10objc_class
   fun:_ZL11_mapStrHashP11_NXMapTablePKv
   fun:_ZL11_mapStrHashP11_NXMapTablePKv
   fun:_ZL11_mapStrHashP11_NXMapTablePKv
   fun:objc_release
   fun:_object_remove_assocations
   fun:__CFInitialize
   fun:_ZN16ImageLoaderMachO11doImageInitERKN11ImageLoader11LinkContextE
   fun:_ZN16ImageLoaderMachO16doInitializationERKN11ImageLoader11LinkContextE
}
{
   <insert_a_suppression_name_here>
   Memcheck:Leak
   match-leak-kinds: indirect
   fun:malloc_zone_malloc
   fun:__CFBasicHashRehash
   fun:CFSetCreate
   fun:_GLOBAL__sub_I_URLCredentialOAuth2.cpp
   fun:_ZN16ImageLoaderMachO18doModInitFunctionsERKN11ImageLoader11LinkContextE
   fun:_ZN16ImageLoaderMachO16doInitializationERKN11ImageLoader11LinkContextE
   fun:_ZN11ImageLoader23recursiveInitializationERKNS_11LinkContextEjRNS_21InitializerTimingListERNS_15UninitedUpwardsE
   fun:_ZN11ImageLoader23recursiveInitializationERKNS_11LinkContextEjRNS_21InitializerTimingListERNS_15UninitedUpwardsE
   fun:_ZN11ImageLoader23recursiveInitializationERKNS_11LinkContextEjRNS_21InitializerTimingListERNS_15UninitedUpwardsE
   fun:_ZN11ImageLoader23recursiveInitializationERKNS_11LinkContextEjRNS_21InitializerTimingListERNS_15UninitedUpwardsE
   fun:_ZN11ImageLoader23recursiveInitializationERKNS_11LinkContextEjRNS_21InitializerTimingListERNS_15UninitedUpwardsE
   fun:_ZN11ImageLoader23recursiveInitializationERKNS_11LinkContextEjRNS_21InitializerTimingListERNS_15UninitedUpwardsE
}
{
   <insert_a_suppression_name_here>
   Memcheck:Leak
   match-leak-kinds: reachable
   fun:calloc
   fun:_ZL12_NXMapMemberP11_NXMapTablePKvPPv
   fun:_ZL11_mapStrHashP11_NXMapTablePKv
   fun:objc_release
   fun:+[NSString initialize]
   fun:objc_msgSend_fpret
   fun:objc_msgSendSuper
   fun:_Z28_getObjc2NonlazyCategoryListPK14mach_header_64Pm
   fun:_ZL16attachCategoriesP10objc_classP26locstamped_category_list_tb
   fun:+[NSMutableString initialize]
   fun:objc_msgSend_fpret
   fun:_Z28_getObjc2NonlazyCategoryListPK14mach_header_64Pm
}
{
   <insert_a_suppression_name_here>
   Memcheck:Leak
   match-leak-kinds: definite
   fun:malloc_zone_malloc
   fun:_CFRuntimeCreateInstance
   fun:CFBasicHashCreate
   fun:__CFSetCreateGeneric
   fun:CFSetCreate
   fun:_GLOBAL__sub_I_HTTPNetConnection.cpp
   fun:_ZN16ImageLoaderMachO18doModInitFunctionsERKN11ImageLoader11LinkContextE
   fun:_ZN16ImageLoaderMachO16doInitializationERKN11ImageLoader11LinkContextE
   fun:_ZN11ImageLoader23recursiveInitializationERKNS_11LinkContextEjRNS_21InitializerTimingListERNS_15UninitedUpwardsE
   fun:_ZN11ImageLoader23recursiveInitializationERKNS_11LinkContextEjRNS_21InitializerTimingListERNS_15UninitedUpwardsE
   fun:_ZN11ImageLoader23recursiveInitializationERKNS_11LinkContextEjRNS_21InitializerTimingListERNS_15UninitedUpwardsE
   fun:_ZN11ImageLoader23recursiveInitializationERKNS_11LinkContextEjRNS_21InitializerTimingListERNS_15UninitedUpwardsE
}
{
   <insert_a_suppression_name_here>
   Memcheck:Leak
   match-leak-kinds: definite
   fun:malloc_zone_malloc
   fun:_CFRuntimeCreateInstance
   fun:CFBasicHashCreate
   fun:__CFSetCreateGeneric
   fun:CFSetCreate
   fun:_GLOBAL__sub_I_URLCredentialClientCertificate.cpp
   fun:_ZN16ImageLoaderMachO18doModInitFunctionsERKN11ImageLoader11LinkContextE
   fun:_ZN16ImageLoaderMachO16doInitializationERKN11ImageLoader11LinkContextE
   fun:_ZN11ImageLoader23recursiveInitializationERKNS_11LinkContextEjRNS_21InitializerTimingListERNS_15UninitedUpwardsE
   fun:_ZN11ImageLoader23recursiveInitializationERKNS_11LinkContextEjRNS_21InitializerTimingListERNS_15UninitedUpwardsE
   fun:_ZN11ImageLoader23recursiveInitializationERKNS_11LinkContextEjRNS_21InitializerTimingListERNS_15UninitedUpwardsE
   fun:_ZN11ImageLoader23recursiveInitializationERKNS_11LinkContextEjRNS_21InitializerTimingListERNS_15UninitedUpwardsE
}
{
   <insert_a_suppression_name_here>
   Memcheck:Leak
   match-leak-kinds: indirect
   fun:malloc_zone_malloc
   fun:__CFBasicHashRehash
   fun:CFSetCreate
   fun:_GLOBAL__sub_I_SessionConnection.mm
   fun:_ZN16ImageLoaderMachO18doModInitFunctionsERKN11ImageLoader11LinkContextE
   fun:_ZN16ImageLoaderMachO16doInitializationERKN11ImageLoader11LinkContextE
   fun:_ZN11ImageLoader23recursiveInitializationERKNS_11LinkContextEjRNS_21InitializerTimingListERNS_15UninitedUpwardsE
   fun:_ZN11ImageLoader23recursiveInitializationERKNS_11LinkContextEjRNS_21InitializerTimingListERNS_15UninitedUpwardsE
   fun:_ZN11ImageLoader23recursiveInitializationERKNS_11LinkContextEjRNS_21InitializerTimingListERNS_15UninitedUpwardsE
   fun:_ZN11ImageLoader23recursiveInitializationERKNS_11LinkContextEjRNS_21InitializerTimingListERNS_15UninitedUpwardsE
   fun:_ZN11ImageLoader23recursiveInitializationERKNS_11LinkContextEjRNS_21InitializerTimingListERNS_15UninitedUpwardsE
   fun:_ZN11ImageLoader23recursiveInitializationERKNS_11LinkContextEjRNS_21InitializerTimingListERNS_15UninitedUpwardsE
}
{
   <insert_a_suppression_name_here>
   Memcheck:Leak
   match-leak-kinds: definite
   fun:malloc_zone_malloc
   fun:_CFRuntimeCreateInstance
   fun:CFBasicHashCreate
   fun:__CFSetCreateGeneric
   fun:CFSetCreate
   fun:_GLOBAL__sub_I_Throttler.cpp
   fun:_ZN16ImageLoaderMachO18doModInitFunctionsERKN11ImageLoader11LinkContextE
   fun:_ZN16ImageLoaderMachO16doInitializationERKN11ImageLoader11LinkContextE
   fun:_ZN11ImageLoader23recursiveInitializationERKNS_11LinkContextEjRNS_21InitializerTimingListERNS_15UninitedUpwardsE
   fun:_ZN11ImageLoader23recursiveInitializationERKNS_11LinkContextEjRNS_21InitializerTimingListERNS_15UninitedUpwardsE
   fun:_ZN11ImageLoader23recursiveInitializationERKNS_11LinkContextEjRNS_21InitializerTimingListERNS_15UninitedUpwardsE
   fun:_ZN11ImageLoader23recursiveInitializationERKNS_11LinkContextEjRNS_21InitializerTimingListERNS_15UninitedUpwardsE
}
{
   <insert_a_suppression_name_here>
   Memcheck:Leak
   match-leak-kinds: reachable
   fun:calloc
   fun:_class_getNonMetaClass
   fun:lookUpImpOrForward
   fun:objc_msgSendSuper_stret
   fun:class_createInstance
   fun:_ZL16attachCategoriesP10objc_classP26locstamped_category_list_tb
   fun:-[__NSArray0 _init]
   fun:__CFInitialize
   fun:_ZN16ImageLoaderMachO11doImageInitERKN11ImageLoader11LinkContextE
   fun:_ZN16ImageLoaderMachO16doInitializationERKN11ImageLoader11LinkContextE
   fun:_ZN11ImageLoader23recursiveInitializationERKNS_11LinkContextEjRNS_21InitializerTimingListERNS_15UninitedUpwardsE
   fun:_ZN11ImageLoader23recursiveInitializationERKNS_11LinkContextEjRNS_21InitializerTimingListERNS_15UninitedUpwardsE
}
{
   <insert_a_suppression_name_here>
   Memcheck:Leak
   match-leak-kinds: reachable
   fun:malloc_zone_malloc
   fun:_CFRuntimeCreateInstance
   fun:CFBasicHashCreate
   fun:__CFSetCreateGeneric
   fun:CFSetCreate
   fun:_GLOBAL__sub_I_HTTP2Callbacks.cpp
   fun:_ZN16ImageLoaderMachO18doModInitFunctionsERKN11ImageLoader11LinkContextE
   fun:_ZN16ImageLoaderMachO16doInitializationERKN11ImageLoader11LinkContextE
   fun:_ZN11ImageLoader23recursiveInitializationERKNS_11LinkContextEjRNS_21InitializerTimingListERNS_15UninitedUpwardsE
   fun:_ZN11ImageLoader23recursiveInitializationERKNS_11LinkContextEjRNS_21InitializerTimingListERNS_15UninitedUpwardsE
   fun:_ZN11ImageLoader23recursiveInitializationERKNS_11LinkContextEjRNS_21InitializerTimingListERNS_15UninitedUpwardsE
   fun:_ZN11ImageLoader23recursiveInitializationERKNS_11LinkContextEjRNS_21InitializerTimingListERNS_15UninitedUpwardsE
}
{
   <insert_a_suppression_name_here>
   Memcheck:Leak
   match-leak-kinds: definite
   fun:malloc_zone_malloc
   fun:_CFRuntimeCreateInstance
   fun:CFBasicHashCreate
   fun:__CFSetCreateGeneric
   fun:CFSetCreate
   fun:_GLOBAL__sub_I_CFHTTPAuthentication.c
   fun:_ZN16ImageLoaderMachO18doModInitFunctionsERKN11ImageLoader11LinkContextE
   fun:_ZN16ImageLoaderMachO16doInitializationERKN11ImageLoader11LinkContextE
   fun:_ZN11ImageLoader23recursiveInitializationERKNS_11LinkContextEjRNS_21InitializerTimingListERNS_15UninitedUpwardsE
   fun:_ZN11ImageLoader23recursiveInitializationERKNS_11LinkContextEjRNS_21InitializerTimingListERNS_15UninitedUpwardsE
   fun:_ZN11ImageLoader23recursiveInitializationERKNS_11LinkContextEjRNS_21InitializerTimingListERNS_15UninitedUpwardsE
   fun:_ZN11ImageLoader23recursiveInitializationERKNS_11LinkContextEjRNS_21InitializerTimingListERNS_15UninitedUpwardsE
}
{
   <insert_a_suppression_name_here>
   Memcheck:Leak
   match-leak-kinds: indirect
   fun:malloc_zone_malloc
   fun:__CFBasicHashRehash
   fun:CFSetCreate
   fun:_GLOBAL__sub_I_URLConnectionLoader.cpp
   fun:_ZN16ImageLoaderMachO18doModInitFunctionsERKN11ImageLoader11LinkContextE
   fun:_ZN16ImageLoaderMachO16doInitializationERKN11ImageLoader11LinkContextE
   fun:_ZN11ImageLoader23recursiveInitializationERKNS_11LinkContextEjRNS_21InitializerTimingListERNS_15UninitedUpwardsE
   fun:_ZN11ImageLoader23recursiveInitializationERKNS_11LinkContextEjRNS_21InitializerTimingListERNS_15UninitedUpwardsE
   fun:_ZN11ImageLoader23recursiveInitializationERKNS_11LinkContextEjRNS_21InitializerTimingListERNS_15UninitedUpwardsE
   fun:_ZN11ImageLoader23recursiveInitializationERKNS_11LinkContextEjRNS_21InitializerTimingListERNS_15UninitedUpwardsE
   fun:_ZN11ImageLoader23recursiveInitializationERKNS_11LinkContextEjRNS_21InitializerTimingListERNS_15UninitedUpwardsE
   fun:_ZN11ImageLoader23recursiveInitializationERKNS_11LinkContextEjRNS_21InitializerTimingListERNS_15UninitedUpwardsE
}
{
   <insert_a_suppression_name_here>
   Memcheck:Leak
   match-leak-kinds: reachable
   fun:malloc
   fun:_xpc_malloc
   fun:_xpc_dictionary_insert
   fun:xpc_dictionary_set_uint64
   fun:_xpc_dyld_image_callback
   fun:_ZN4dyldL18notifyBatchPartialE17dyld_image_statesbPFPKcS0_jPK15dyld_image_infoE
   fun:_ZN11ImageLoader4linkERKNS_11LinkContextEbbbRKNS_10RPathChainE
   fun:_ZN4dyld4linkEP11ImageLoaderbbRKNS0_10RPathChainE
   fun:dlopen
   fun:dlopen
   fun:heim_load_frameworks
   fun:_ZN16ImageLoaderMachO18doModInitFunctionsERKN11ImageLoader11LinkContextE
}
{
   <insert_a_suppression_name_here>
   Memcheck:Leak
   match-leak-kinds: indirect
   fun:malloc_zone_malloc
   fun:__CFBasicHashRehash
   fun:CFSetCreate
   fun:_GLOBAL__sub_I_NetworkProxy.cpp
   fun:_ZN16ImageLoaderMachO18doModInitFunctionsERKN11ImageLoader11LinkContextE
   fun:_ZN16ImageLoaderMachO16doInitializationERKN11ImageLoader11LinkContextE
   fun:_ZN11ImageLoader23recursiveInitializationERKNS_11LinkContextEjRNS_21InitializerTimingListERNS_15UninitedUpwardsE
   fun:_ZN11ImageLoader23recursiveInitializationERKNS_11LinkContextEjRNS_21InitializerTimingListERNS_15UninitedUpwardsE
   fun:_ZN11ImageLoader23recursiveInitializationERKNS_11LinkContextEjRNS_21InitializerTimingListERNS_15UninitedUpwardsE
   fun:_ZN11ImageLoader23recursiveInitializationERKNS_11LinkContextEjRNS_21InitializerTimingListERNS_15UninitedUpwardsE
   fun:_ZN11ImageLoader23recursiveInitializationERKNS_11LinkContextEjRNS_21InitializerTimingListERNS_15UninitedUpwardsE
   fun:_ZN11ImageLoader23recursiveInitializationERKNS_11LinkContextEjRNS_21InitializerTimingListERNS_15UninitedUpwardsE
}
{
   <insert_a_suppression_name_here>
   Memcheck:Leak
   match-leak-kinds: indirect
   fun:malloc_zone_malloc
   fun:__CFUniCharLoadBitmapData
   fun:CFUniCharGetBitmapPtrForPlane
   fun:__CFUniCharLoadDecompositionTable
   fun:CFUniCharDecompose
   fun:CFStringGetFileSystemRepresentation
   fun:_CFURLCreateWithFileSystemPath
   fun:_CFBundleCopyBundleURLForExecutableURL
   fun:_CFBundleGetMainBundleAlreadyLocked
   fun:CFBundleGetMainBundle
   fun:___bundleInfo_block_invoke
   fun:_dispatch_client_callout
}
{
   <insert_a_suppression_name_here>
   Memcheck:Leak
   match-leak-kinds: definite
   fun:malloc_zone_malloc
   fun:_CFRuntimeCreateInstance
   fun:CFBasicHashCreate
   fun:__CFSetCreateGeneric
   fun:CFSetCreate
   fun:_GLOBAL__sub_I_HTTPReadStream.cpp
   fun:_ZN16ImageLoaderMachO18doModInitFunctionsERKN11ImageLoader11LinkContextE
   fun:_ZN16ImageLoaderMachO16doInitializationERKN11ImageLoader11LinkContextE
   fun:_ZN11ImageLoader23recursiveInitializationERKNS_11LinkContextEjRNS_21InitializerTimingListERNS_15UninitedUpwardsE
   fun:_ZN11ImageLoader23recursiveInitializationERKNS_11LinkContextEjRNS_21InitializerTimingListERNS_15UninitedUpwardsE
   fun:_ZN11ImageLoader23recursiveInitializationERKNS_11LinkContextEjRNS_21InitializerTimingListERNS_15UninitedUpwardsE
   fun:_ZN11ImageLoader23recursiveInitializationERKNS_11LinkContextEjRNS_21InitializerTimingListERNS_15UninitedUpwardsE
}
{
   <insert_a_suppression_name_here>
   Memcheck:Leak
   match-leak-kinds: reachable
   fun:calloc
   fun:_ZL12_NXMapMemberP11_NXMapTablePKvPPv
   fun:hasLoadMethods
   fun:_ZL16attachCategoriesP10objc_classP26locstamped_category_list_tb
   fun:+[NSBinder load]
   fun:_ZL19_finishInitializingP10objc_classS0_
   fun:NXMapRemove
   fun:_ZN4dyldL12notifySingleE17dyld_image_statesPK11ImageLoader
   fun:_ZN11ImageLoader23recursiveInitializationERKNS_11LinkContextEjRNS_21InitializerTimingListERNS_15UninitedUpwardsE
   fun:_ZN11ImageLoader23recursiveInitializationERKNS_11LinkContextEjRNS_21InitializerTimingListERNS_15UninitedUpwardsE
   fun:_ZN11ImageLoader23recursiveInitializationERKNS_11LinkContextEjRNS_21InitializerTimingListERNS_15UninitedUpwardsE
   fun:_ZN11ImageLoader23recursiveInitializationERKNS_11LinkContextEjRNS_21InitializerTimingListERNS_15UninitedUpwardsE
}
{
   <insert_a_suppression_name_here>
   Memcheck:Leak
   match-leak-kinds: possible
   fun:calloc
   fun:_ZL12_NXMapMemberP11_NXMapTablePKvPPv
   fun:_ZL11_mapStrHashP11_NXMapTablePKv
   fun:_ZL11_mapStrHashP11_NXMapTablePKv
   fun:objc_release
   fun:_object_remove_assocations
   fun:__CFInitialize
   fun:_ZN16ImageLoaderMachO11doImageInitERKN11ImageLoader11LinkContextE
   fun:_ZN16ImageLoaderMachO16doInitializationERKN11ImageLoader11LinkContextE
   fun:_ZN11ImageLoader23recursiveInitializationERKNS_11LinkContextEjRNS_21InitializerTimingListERNS_15UninitedUpwardsE
   fun:_ZN11ImageLoader23recursiveInitializationERKNS_11LinkContextEjRNS_21InitializerTimingListERNS_15UninitedUpwardsE
   fun:_ZN11ImageLoader23recursiveInitializationERKNS_11LinkContextEjRNS_21InitializerTimingListERNS_15UninitedUpwardsE
}
{
   <insert_a_suppression_name_here>
   Memcheck:Leak
   match-leak-kinds: reachable
   fun:calloc
   fun:NXMapRemove
   fun:__CFAllocateObject2
   fun:+[__NSDictionaryM __new:::::]
   fun:-[__NSPlaceholderDictionary initWithCapacity:]
   fun:+[DDDynamicSource registerDynamicSourceClass:forSourceKind:]
   fun:+[DDGeoSource load]
   fun:_ZL19_finishInitializingP10objc_classS0_
   fun:NXMapRemove
   fun:_ZN4dyldL12notifySingleE17dyld_image_statesPK11ImageLoader
   fun:_ZN11ImageLoader23recursiveInitializationERKNS_11LinkContextEjRNS_21InitializerTimingListERNS_15UninitedUpwardsE
   fun:_ZN11ImageLoader23recursiveInitializationERKNS_11LinkContextEjRNS_21InitializerTimingListERNS_15UninitedUpwardsE
}
{
   <insert_a_suppression_name_here>
   Memcheck:Leak
   match-leak-kinds: indirect
   fun:malloc_zone_malloc
   fun:__CFBasicHashRehash
   fun:CFSetCreate
   fun:_GLOBAL__sub_I_SessionTask.mm
   fun:_ZN16ImageLoaderMachO18doModInitFunctionsERKN11ImageLoader11LinkContextE
   fun:_ZN16ImageLoaderMachO16doInitializationERKN11ImageLoader11LinkContextE
   fun:_ZN11ImageLoader23recursiveInitializationERKNS_11LinkContextEjRNS_21InitializerTimingListERNS_15UninitedUpwardsE
   fun:_ZN11ImageLoader23recursiveInitializationERKNS_11LinkContextEjRNS_21InitializerTimingListERNS_15UninitedUpwardsE
   fun:_ZN11ImageLoader23recursiveInitializationERKNS_11LinkContextEjRNS_21InitializerTimingListERNS_15UninitedUpwardsE
   fun:_ZN11ImageLoader23recursiveInitializationERKNS_11LinkContextEjRNS_21InitializerTimingListERNS_15UninitedUpwardsE
   fun:_ZN11ImageLoader23recursiveInitializationERKNS_11LinkContextEjRNS_21InitializerTimingListERNS_15UninitedUpwardsE
   fun:_ZN11ImageLoader23recursiveInitializationERKNS_11LinkContextEjRNS_21InitializerTimingListERNS_15UninitedUpwardsE
}
{
   <insert_a_suppression_name_here>
   Memcheck:Leak
   match-leak-kinds: reachable
   fun:calloc
   fun:_ZL12_NXMapMemberP11_NXMapTablePKvPPv
   fun:cache_getImp
   fun:_Z28_getObjc2NonlazyCategoryListPK14mach_header_64Pm
   fun:_ZL16attachCategoriesP10objc_classP26locstamped_category_list_tb
   fun:+[NSBinder load]
   fun:_ZL19_finishInitializingP10objc_classS0_
   fun:NXMapRemove
   fun:_ZN4dyldL12notifySingleE17dyld_image_statesPK11ImageLoader
   fun:_ZN11ImageLoader23recursiveInitializationERKNS_11LinkContextEjRNS_21InitializerTimingListERNS_15UninitedUpwardsE
   fun:_ZN11ImageLoader23recursiveInitializationERKNS_11LinkContextEjRNS_21InitializerTimingListERNS_15UninitedUpwardsE
   fun:_ZN11ImageLoader23recursiveInitializationERKNS_11LinkContextEjRNS_21InitializerTimingListERNS_15UninitedUpwardsE
}
{
   <insert_a_suppression_name_here>
   Memcheck:Leak
   match-leak-kinds: indirect
   fun:malloc_zone_malloc
   fun:__CFBasicHashRehash
   fun:CFSetCreate
   fun:_GLOBAL__sub_I_SHTTP2ConnectionCacheEntry.cpp
   fun:_ZN16ImageLoaderMachO18doModInitFunctionsERKN11ImageLoader11LinkContextE
   fun:_ZN16ImageLoaderMachO16doInitializationERKN11ImageLoader11LinkContextE
   fun:_ZN11ImageLoader23recursiveInitializationERKNS_11LinkContextEjRNS_21InitializerTimingListERNS_15UninitedUpwardsE
   fun:_ZN11ImageLoader23recursiveInitializationERKNS_11LinkContextEjRNS_21InitializerTimingListERNS_15UninitedUpwardsE
   fun:_ZN11ImageLoader23recursiveInitializationERKNS_11LinkContextEjRNS_21InitializerTimingListERNS_15UninitedUpwardsE
   fun:_ZN11ImageLoader23recursiveInitializationERKNS_11LinkContextEjRNS_21InitializerTimingListERNS_15UninitedUpwardsE
   fun:_ZN11ImageLoader23recursiveInitializationERKNS_11LinkContextEjRNS_21InitializerTimingListERNS_15UninitedUpwardsE
   fun:_ZN11ImageLoader23recursiveInitializationERKNS_11LinkContextEjRNS_21InitializerTimingListERNS_15UninitedUpwardsE
}
{
   <insert_a_suppression_name_here>
   Memcheck:Leak
   match-leak-kinds: indirect
   fun:malloc_zone_malloc
   fun:__CFBasicHashRehash
   fun:__CFBasicHashAddValue
   fun:CFDictionarySetValue
   fun:_CFBundleCreate
   fun:_CFBundleGetMainBundleAlreadyLocked
   fun:CFBundleGetMainBundle
   fun:___bundleInfo_block_invoke
   fun:_dispatch_client_callout
   fun:dispatch_once_f
   fun:_CFAppVersionCheckLessThan
   fun:__25+[NSArray allocWithZone:]_block_invoke
}
{
   <insert_a_suppression_name_here>
   Memcheck:Leak
   match-leak-kinds: indirect
   fun:malloc_zone_malloc
   fun:__CFBasicHashRehash
   fun:CFSetCreate
   fun:_GLOBAL__sub_I_STubeManager.cpp
   fun:_ZN16ImageLoaderMachO18doModInitFunctionsERKN11ImageLoader11LinkContextE
   fun:_ZN16ImageLoaderMachO16doInitializationERKN11ImageLoader11LinkContextE
   fun:_ZN11ImageLoader23recursiveInitializationERKNS_11LinkContextEjRNS_21InitializerTimingListERNS_15UninitedUpwardsE
   fun:_ZN11ImageLoader23recursiveInitializationERKNS_11LinkContextEjRNS_21InitializerTimingListERNS_15UninitedUpwardsE
   fun:_ZN11ImageLoader23recursiveInitializationERKNS_11LinkContextEjRNS_21InitializerTimingListERNS_15UninitedUpwardsE
   fun:_ZN11ImageLoader23recursiveInitializationERKNS_11LinkContextEjRNS_21InitializerTimingListERNS_15UninitedUpwardsE
   fun:_ZN11ImageLoader23recursiveInitializationERKNS_11LinkContextEjRNS_21InitializerTimingListERNS_15UninitedUpwardsE
   fun:_ZN11ImageLoader23recursiveInitializationERKNS_11LinkContextEjRNS_21InitializerTimingListERNS_15UninitedUpwardsE
}
{
   <insert_a_suppression_name_here>
   Memcheck:Leak
   match-leak-kinds: possible
   fun:realloc
   fun:_ZL12realizeClassP10objc_class
   fun:_ZL12realizeClassP10objc_class
   fun:_ZN13list_array_ttIm15protocol_list_tE11attachListsEPKPS0_j
   fun:_read_images
   fun:map_images_nolock
   fun:map_2_images
   fun:_ZN4dyldL18notifyBatchPartialE17dyld_image_statesbPFPKcS0_jPK15dyld_image_infoE
   fun:_ZN4dyld36registerImageStateBatchChangeHandlerE17dyld_image_statesPFPKcS0_jPK15dyld_image_infoE
   fun:dyld_register_image_state_change_handler
   fun:_objc_init
   fun:_os_object_init
}
{
   <insert_a_suppression_name_here>
   Memcheck:Leak
   match-leak-kinds: indirect
   fun:malloc_zone_malloc
   fun:__CFBasicHashRehash
   fun:CFSetCreate
   fun:_GLOBAL__sub_I_URLProtocol.cpp
   fun:_ZN16ImageLoaderMachO18doModInitFunctionsERKN11ImageLoader11LinkContextE
   fun:_ZN16ImageLoaderMachO16doInitializationERKN11ImageLoader11LinkContextE
   fun:_ZN11ImageLoader23recursiveInitializationERKNS_11LinkContextEjRNS_21InitializerTimingListERNS_15UninitedUpwardsE
   fun:_ZN11ImageLoader23recursiveInitializationERKNS_11LinkContextEjRNS_21InitializerTimingListERNS_15UninitedUpwardsE
   fun:_ZN11ImageLoader23recursiveInitializationERKNS_11LinkContextEjRNS_21InitializerTimingListERNS_15UninitedUpwardsE
   fun:_ZN11ImageLoader23recursiveInitializationERKNS_11LinkContextEjRNS_21InitializerTimingListERNS_15UninitedUpwardsE
   fun:_ZN11ImageLoader23recursiveInitializationERKNS_11LinkContextEjRNS_21InitializerTimingListERNS_15UninitedUpwardsE
   fun:_ZN11ImageLoader23recursiveInitializationERKNS_11LinkContextEjRNS_21InitializerTimingListERNS_15UninitedUpwardsE
}
{
   <insert_a_suppression_name_here>
   Memcheck:Leak
   match-leak-kinds: indirect
   fun:malloc_zone_malloc
   fun:_CFRuntimeCreateInstance
   fun:__CFStringCreateImmutableFunnel3
   fun:CFStringCreateWithCString
   fun:_CFBundleGetMainBundleAlreadyLocked
   fun:CFBundleGetMainBundle
   fun:___bundleInfo_block_invoke
   fun:_dispatch_client_callout
   fun:dispatch_once_f
   fun:_CFAppVersionCheckLessThan
   fun:__25+[NSArray allocWithZone:]_block_invoke
   fun:_dispatch_client_callout
}
{
   <insert_a_suppression_name_here>
   Memcheck:Leak
   match-leak-kinds: definite
   fun:malloc_zone_malloc
   fun:_CFRuntimeCreateInstance
   fun:CFBasicHashCreate
   fun:__CFSetCreateGeneric
   fun:CFSetCreate
   fun:_GLOBAL__sub_I_MemoryCredentialStorage.cpp
   fun:_ZN16ImageLoaderMachO18doModInitFunctionsERKN11ImageLoader11LinkContextE
   fun:_ZN16ImageLoaderMachO16doInitializationERKN11ImageLoader11LinkContextE
   fun:_ZN11ImageLoader23recursiveInitializationERKNS_11LinkContextEjRNS_21InitializerTimingListERNS_15UninitedUpwardsE
   fun:_ZN11ImageLoader23recursiveInitializationERKNS_11LinkContextEjRNS_21InitializerTimingListERNS_15UninitedUpwardsE
   fun:_ZN11ImageLoader23recursiveInitializationERKNS_11LinkContextEjRNS_21InitializerTimingListERNS_15UninitedUpwardsE
   fun:_ZN11ImageLoader23recursiveInitializationERKNS_11LinkContextEjRNS_21InitializerTimingListERNS_15UninitedUpwardsE
}
{
   <insert_a_suppression_name_here>
   Memcheck:Leak
   match-leak-kinds: indirect
   fun:malloc_zone_malloc
   fun:__CFBasicHashRehash
   fun:CFSetCreate
   fun:_GLOBAL__sub_I_SSPDYConnectionCacheEntry.cpp
   fun:_ZN16ImageLoaderMachO18doModInitFunctionsERKN11ImageLoader11LinkContextE
   fun:_ZN16ImageLoaderMachO16doInitializationERKN11ImageLoader11LinkContextE
   fun:_ZN11ImageLoader23recursiveInitializationERKNS_11LinkContextEjRNS_21InitializerTimingListERNS_15UninitedUpwardsE
   fun:_ZN11ImageLoader23recursiveInitializationERKNS_11LinkContextEjRNS_21InitializerTimingListERNS_15UninitedUpwardsE
   fun:_ZN11ImageLoader23recursiveInitializationERKNS_11LinkContextEjRNS_21InitializerTimingListERNS_15UninitedUpwardsE
   fun:_ZN11ImageLoader23recursiveInitializationERKNS_11LinkContextEjRNS_21InitializerTimingListERNS_15UninitedUpwardsE
   fun:_ZN11ImageLoader23recursiveInitializationERKNS_11LinkContextEjRNS_21InitializerTimingListERNS_15UninitedUpwardsE
   fun:_ZN11ImageLoader23recursiveInitializationERKNS_11LinkContextEjRNS_21InitializerTimingListERNS_15UninitedUpwardsE
}
{
   <insert_a_suppression_name_here>
   Memcheck:Leak
   match-leak-kinds: reachable
   fun:calloc
   fun:_class_getNonMetaClass
   fun:lookUpImpOrForward
   fun:objc_msgSendSuper_stret
   fun:objc_retain
   fun:_ZL16attachCategoriesP10objc_classP26locstamped_category_list_tb
   fun:+[NSArray allocWithZone:]
   fun:+[__NSArray0 _alloc]
   fun:__CFInitialize
   fun:_ZN16ImageLoaderMachO11doImageInitERKN11ImageLoader11LinkContextE
   fun:_ZN16ImageLoaderMachO16doInitializationERKN11ImageLoader11LinkContextE
   fun:_ZN11ImageLoader23recursiveInitializationERKNS_11LinkContextEjRNS_21InitializerTimingListERNS_15UninitedUpwardsE
}
{
   <insert_a_suppression_name_here>
   Memcheck:Leak
   match-leak-kinds: definite
   fun:malloc
   fun:__NSSetCStringCharToUnichar
   fun:_NSInitializePlatform
   fun:cache_fill
   fun:NXMapRemove
   fun:_ZN4dyldL12notifySingleE17dyld_image_statesPK11ImageLoader
   fun:_ZN11ImageLoader23recursiveInitializationERKNS_11LinkContextEjRNS_21InitializerTimingListERNS_15UninitedUpwardsE
   fun:_ZN11ImageLoader23recursiveInitializationERKNS_11LinkContextEjRNS_21InitializerTimingListERNS_15UninitedUpwardsE
   fun:_ZN11ImageLoader23recursiveInitializationERKNS_11LinkContextEjRNS_21InitializerTimingListERNS_15UninitedUpwardsE
   fun:_ZN11ImageLoader23recursiveInitializationERKNS_11LinkContextEjRNS_21InitializerTimingListERNS_15UninitedUpwardsE
   fun:_ZN11ImageLoader23recursiveInitializationERKNS_11LinkContextEjRNS_21InitializerTimingListERNS_15UninitedUpwardsE
   fun:_ZN11ImageLoader23recursiveInitializationERKNS_11LinkContextEjRNS_21InitializerTimingListERNS_15UninitedUpwardsE
}
{
   <insert_a_suppression_name_here>
   Memcheck:Leak
   match-leak-kinds: indirect
   fun:malloc_zone_malloc
   fun:__CFBasicHashRehash
   fun:CFSetCreate
   fun:_GLOBAL__sub_I_URLCredential.cpp
   fun:_ZN16ImageLoaderMachO18doModInitFunctionsERKN11ImageLoader11LinkContextE
   fun:_ZN16ImageLoaderMachO16doInitializationERKN11ImageLoader11LinkContextE
   fun:_ZN11ImageLoader23recursiveInitializationERKNS_11LinkContextEjRNS_21InitializerTimingListERNS_15UninitedUpwardsE
   fun:_ZN11ImageLoader23recursiveInitializationERKNS_11LinkContextEjRNS_21InitializerTimingListERNS_15UninitedUpwardsE
   fun:_ZN11ImageLoader23recursiveInitializationERKNS_11LinkContextEjRNS_21InitializerTimingListERNS_15UninitedUpwardsE
   fun:_ZN11ImageLoader23recursiveInitializationERKNS_11LinkContextEjRNS_21InitializerTimingListERNS_15UninitedUpwardsE
   fun:_ZN11ImageLoader23recursiveInitializationERKNS_11LinkContextEjRNS_21InitializerTimingListERNS_15UninitedUpwardsE
   fun:_ZN11ImageLoader23recursiveInitializationERKNS_11LinkContextEjRNS_21InitializerTimingListERNS_15UninitedUpwardsE
}
{
   <insert_a_suppression_name_here>
   Memcheck:Leak
   match-leak-kinds: reachable
   fun:malloc_zone_malloc
   fun:__CFBasicHashRehash
   fun:CFSetCreate
   fun:_GLOBAL__sub_I_ABAuthenticator.cpp
   fun:_ZN16ImageLoaderMachO18doModInitFunctionsERKN11ImageLoader11LinkContextE
   fun:_ZN16ImageLoaderMachO16doInitializationERKN11ImageLoader11LinkContextE
   fun:_ZN11ImageLoader23recursiveInitializationERKNS_11LinkContextEjRNS_21InitializerTimingListERNS_15UninitedUpwardsE
   fun:_ZN11ImageLoader23recursiveInitializationERKNS_11LinkContextEjRNS_21InitializerTimingListERNS_15UninitedUpwardsE
   fun:_ZN11ImageLoader23recursiveInitializationERKNS_11LinkContextEjRNS_21InitializerTimingListERNS_15UninitedUpwardsE
   fun:_ZN11ImageLoader23recursiveInitializationERKNS_11LinkContextEjRNS_21InitializerTimingListERNS_15UninitedUpwardsE
   fun:_ZN11ImageLoader23recursiveInitializationERKNS_11LinkContextEjRNS_21InitializerTimingListERNS_15UninitedUpwardsE
   fun:_ZN11ImageLoader23recursiveInitializationERKNS_11LinkContextEjRNS_21InitializerTimingListERNS_15UninitedUpwardsE
}
{
   <insert_a_suppression_name_here>
   Memcheck:Leak
   match-leak-kinds: indirect
   fun:malloc_zone_malloc
   fun:__CFBasicHashRehash
   fun:CFSetCreate
   fun:_GLOBAL__sub_I_MemoryCredentialStorage.cpp
   fun:_ZN16ImageLoaderMachO18doModInitFunctionsERKN11ImageLoader11LinkContextE
   fun:_ZN16ImageLoaderMachO16doInitializationERKN11ImageLoader11LinkContextE
   fun:_ZN11ImageLoader23recursiveInitializationERKNS_11LinkContextEjRNS_21InitializerTimingListERNS_15UninitedUpwardsE
   fun:_ZN11ImageLoader23recursiveInitializationERKNS_11LinkContextEjRNS_21InitializerTimingListERNS_15UninitedUpwardsE
   fun:_ZN11ImageLoader23recursiveInitializationERKNS_11LinkContextEjRNS_21InitializerTimingListERNS_15UninitedUpwardsE
   fun:_ZN11ImageLoader23recursiveInitializationERKNS_11LinkContextEjRNS_21InitializerTimingListERNS_15UninitedUpwardsE
   fun:_ZN11ImageLoader23recursiveInitializationERKNS_11LinkContextEjRNS_21InitializerTimingListERNS_15UninitedUpwardsE
   fun:_ZN11ImageLoader23recursiveInitializationERKNS_11LinkContextEjRNS_21InitializerTimingListERNS_15UninitedUpwardsE
}
{
   <insert_a_suppression_name_here>
   Memcheck:Leak
   match-leak-kinds: definite
   fun:malloc_zone_malloc
   fun:_CFRuntimeCreateInstance
   fun:__CFArrayInit
   fun:_CFBundleCreate
   fun:_CFBundleGetMainBundleAlreadyLocked
   fun:CFBundleGetMainBundle
   fun:___bundleInfo_block_invoke
   fun:_dispatch_client_callout
   fun:dispatch_once_f
   fun:_CFAppVersionCheckLessThan
   fun:__25+[NSArray allocWithZone:]_block_invoke
   fun:_dispatch_client_callout
}
{
   <insert_a_suppression_name_here>
   Memcheck:Leak
   match-leak-kinds: definite
   fun:malloc_zone_malloc
   fun:_CFRuntimeCreateInstance
   fun:CFBasicHashCreate
   fun:__CFSetCreateGeneric
   fun:CFSetCreate
   fun:_GLOBAL__sub_I_CFURLRequest.c
   fun:_ZN16ImageLoaderMachO18doModInitFunctionsERKN11ImageLoader11LinkContextE
   fun:_ZN16ImageLoaderMachO16doInitializationERKN11ImageLoader11LinkContextE
   fun:_ZN11ImageLoader23recursiveInitializationERKNS_11LinkContextEjRNS_21InitializerTimingListERNS_15UninitedUpwardsE
   fun:_ZN11ImageLoader23recursiveInitializationERKNS_11LinkContextEjRNS_21InitializerTimingListERNS_15UninitedUpwardsE
   fun:_ZN11ImageLoader23recursiveInitializationERKNS_11LinkContextEjRNS_21InitializerTimingListERNS_15UninitedUpwardsE
   fun:_ZN11ImageLoader23recursiveInitializationERKNS_11LinkContextEjRNS_21InitializerTimingListERNS_15UninitedUpwardsE
}
{
   <insert_a_suppression_name_here>
   Memcheck:Leak
   match-leak-kinds: indirect
   fun:malloc_zone_malloc
   fun:__CFBasicHashRehash
   fun:CFSetCreate
   fun:_GLOBAL__sub_I_SSPDYConnectionCache.cpp
   fun:_ZN16ImageLoaderMachO18doModInitFunctionsERKN11ImageLoader11LinkContextE
   fun:_ZN16ImageLoaderMachO16doInitializationERKN11ImageLoader11LinkContextE
   fun:_ZN11ImageLoader23recursiveInitializationERKNS_11LinkContextEjRNS_21InitializerTimingListERNS_15UninitedUpwardsE
   fun:_ZN11ImageLoader23recursiveInitializationERKNS_11LinkContextEjRNS_21InitializerTimingListERNS_15UninitedUpwardsE
   fun:_ZN11ImageLoader23recursiveInitializationERKNS_11LinkContextEjRNS_21InitializerTimingListERNS_15UninitedUpwardsE
   fun:_ZN11ImageLoader23recursiveInitializationERKNS_11LinkContextEjRNS_21InitializerTimingListERNS_15UninitedUpwardsE
   fun:_ZN11ImageLoader23recursiveInitializationERKNS_11LinkContextEjRNS_21InitializerTimingListERNS_15UninitedUpwardsE
   fun:_ZN11ImageLoader23recursiveInitializationERKNS_11LinkContextEjRNS_21InitializerTimingListERNS_15UninitedUpwardsE
}
{
   <insert_a_suppression_name_here>
   Memcheck:Leak
   match-leak-kinds: indirect
   fun:malloc_zone_malloc
   fun:__CFBasicHashRehash
   fun:CFSetCreate
   fun:_GLOBAL__sub_I_HTTPConnectionCacheKey.cpp
   fun:_ZN16ImageLoaderMachO18doModInitFunctionsERKN11ImageLoader11LinkContextE
   fun:_ZN16ImageLoaderMachO16doInitializationERKN11ImageLoader11LinkContextE
   fun:_ZN11ImageLoader23recursiveInitializationERKNS_11LinkContextEjRNS_21InitializerTimingListERNS_15UninitedUpwardsE
   fun:_ZN11ImageLoader23recursiveInitializationERKNS_11LinkContextEjRNS_21InitializerTimingListERNS_15UninitedUpwardsE
   fun:_ZN11ImageLoader23recursiveInitializationERKNS_11LinkContextEjRNS_21InitializerTimingListERNS_15UninitedUpwardsE
   fun:_ZN11ImageLoader23recursiveInitializationERKNS_11LinkContextEjRNS_21InitializerTimingListERNS_15UninitedUpwardsE
   fun:_ZN11ImageLoader23recursiveInitializationERKNS_11LinkContextEjRNS_21InitializerTimingListERNS_15UninitedUpwardsE
   fun:_ZN11ImageLoader23recursiveInitializationERKNS_11LinkContextEjRNS_21InitializerTimingListERNS_15UninitedUpwardsE
}
{
   <insert_a_suppression_name_here>
   Memcheck:Leak
   match-leak-kinds: definite
   fun:malloc_zone_malloc
   fun:_CFRuntimeCreateInstance
   fun:CFBasicHashCreate
   fun:__CFSetCreateGeneric
   fun:CFSetCreate
   fun:_GLOBAL__sub_I_URLProtocol.cpp
   fun:_ZN16ImageLoaderMachO18doModInitFunctionsERKN11ImageLoader11LinkContextE
   fun:_ZN16ImageLoaderMachO16doInitializationERKN11ImageLoader11LinkContextE
   fun:_ZN11ImageLoader23recursiveInitializationERKNS_11LinkContextEjRNS_21InitializerTimingListERNS_15UninitedUpwardsE
   fun:_ZN11ImageLoader23recursiveInitializationERKNS_11LinkContextEjRNS_21InitializerTimingListERNS_15UninitedUpwardsE
   fun:_ZN11ImageLoader23recursiveInitializationERKNS_11LinkContextEjRNS_21InitializerTimingListERNS_15UninitedUpwardsE
   fun:_ZN11ImageLoader23recursiveInitializationERKNS_11LinkContextEjRNS_21InitializerTimingListERNS_15UninitedUpwardsE
}
{
   <insert_a_suppression_name_here>
   Memcheck:Leak
   match-leak-kinds: indirect
   fun:malloc_zone_malloc
   fun:__CFBasicHashRehash
   fun:CFSetCreate
   fun:_GLOBAL__sub_I_SPDYConnectionCache.cpp
   fun:_ZN16ImageLoaderMachO18doModInitFunctionsERKN11ImageLoader11LinkContextE
   fun:_ZN16ImageLoaderMachO16doInitializationERKN11ImageLoader11LinkContextE
   fun:_ZN11ImageLoader23recursiveInitializationERKNS_11LinkContextEjRNS_21InitializerTimingListERNS_15UninitedUpwardsE
   fun:_ZN11ImageLoader23recursiveInitializationERKNS_11LinkContextEjRNS_21InitializerTimingListERNS_15UninitedUpwardsE
   fun:_ZN11ImageLoader23recursiveInitializationERKNS_11LinkContextEjRNS_21InitializerTimingListERNS_15UninitedUpwardsE
   fun:_ZN11ImageLoader23recursiveInitializationERKNS_11LinkContextEjRNS_21InitializerTimingListERNS_15UninitedUpwardsE
   fun:_ZN11ImageLoader23recursiveInitializationERKNS_11LinkContextEjRNS_21InitializerTimingListERNS_15UninitedUpwardsE
   fun:_ZN11ImageLoader23recursiveInitializationERKNS_11LinkContextEjRNS_21InitializerTimingListERNS_15UninitedUpwardsE
}
{
   <insert_a_suppression_name_here>
   Memcheck:Leak
   match-leak-kinds: indirect
   fun:malloc_zone_malloc
   fun:__CFBasicHashRehash
   fun:CFSetCreate
   fun:_GLOBAL__sub_I_NSURLProtocol.mm
   fun:_ZN16ImageLoaderMachO18doModInitFunctionsERKN11ImageLoader11LinkContextE
   fun:_ZN16ImageLoaderMachO16doInitializationERKN11ImageLoader11LinkContextE
   fun:_ZN11ImageLoader23recursiveInitializationERKNS_11LinkContextEjRNS_21InitializerTimingListERNS_15UninitedUpwardsE
   fun:_ZN11ImageLoader23recursiveInitializationERKNS_11LinkContextEjRNS_21InitializerTimingListERNS_15UninitedUpwardsE
   fun:_ZN11ImageLoader23recursiveInitializationERKNS_11LinkContextEjRNS_21InitializerTimingListERNS_15UninitedUpwardsE
   fun:_ZN11ImageLoader23recursiveInitializationERKNS_11LinkContextEjRNS_21InitializerTimingListERNS_15UninitedUpwardsE
   fun:_ZN11ImageLoader23recursiveInitializationERKNS_11LinkContextEjRNS_21InitializerTimingListERNS_15UninitedUpwardsE
   fun:_ZN11ImageLoader23recursiveInitializationERKNS_11LinkContextEjRNS_21InitializerTimingListERNS_15UninitedUpwardsE
}
{
   <insert_a_suppression_name_here>
   Memcheck:Leak
   match-leak-kinds: possible
   fun:malloc_zone_calloc
   fun:NXCreateMapTable
   fun:_ZL12realizeClassP10objc_class
   fun:cache_getImp
   fun:_Z28_getObjc2NonlazyCategoryListPK14mach_header_64Pm
   fun:_ZL16attachCategoriesP10objc_classP26locstamped_category_list_tb
   fun:CFArrayCreate
   fun:__CFInitialize
   fun:_ZN16ImageLoaderMachO11doImageInitERKN11ImageLoader11LinkContextE
   fun:_ZN16ImageLoaderMachO16doInitializationERKN11ImageLoader11LinkContextE
   fun:_ZN11ImageLoader23recursiveInitializationERKNS_11LinkContextEjRNS_21InitializerTimingListERNS_15UninitedUpwardsE
   fun:_ZN11ImageLoader23recursiveInitializationERKNS_11LinkContextEjRNS_21InitializerTimingListERNS_15UninitedUpwardsE
}
{
   <insert_a_suppression_name_here>
   Memcheck:Leak
   match-leak-kinds: possible
   fun:malloc
   fun:_ZL12realizeClassP10objc_class
   fun:_ZL12realizeClassP10objc_class
   fun:_ZL12realizeClassP10objc_class
   fun:_ZL11_mapStrHashP11_NXMapTablePKv
   fun:objc_release
   fun:_object_remove_assocations
   fun:__CFInitialize
   fun:_ZN16ImageLoaderMachO11doImageInitERKN11ImageLoader11LinkContextE
   fun:_ZN16ImageLoaderMachO16doInitializationERKN11ImageLoader11LinkContextE
   fun:_ZN11ImageLoader23recursiveInitializationERKNS_11LinkContextEjRNS_21InitializerTimingListERNS_15UninitedUpwardsE
   fun:_ZN11ImageLoader23recursiveInitializationERKNS_11LinkContextEjRNS_21InitializerTimingListERNS_15UninitedUpwardsE
}
{
   <insert_a_suppression_name_here>
   Memcheck:Leak
   match-leak-kinds: reachable
   fun:malloc
   fun:strdup
   fun:call_load_methods
   fun:add_class_to_loadable_list
   fun:__CFMakeNSBlockClasses
   fun:__CFInitialize
   fun:_ZN16ImageLoaderMachO11doImageInitERKN11ImageLoader11LinkContextE
   fun:_ZN16ImageLoaderMachO16doInitializationERKN11ImageLoader11LinkContextE
   fun:_ZN11ImageLoader23recursiveInitializationERKNS_11LinkContextEjRNS_21InitializerTimingListERNS_15UninitedUpwardsE
   fun:_ZN11ImageLoader23recursiveInitializationERKNS_11LinkContextEjRNS_21InitializerTimingListERNS_15UninitedUpwardsE
   fun:_ZN11ImageLoader23recursiveInitializationERKNS_11LinkContextEjRNS_21InitializerTimingListERNS_15UninitedUpwardsE
   fun:_ZN11ImageLoader23recursiveInitializationERKNS_11LinkContextEjRNS_21InitializerTimingListERNS_15UninitedUpwardsE
}
{
   <insert_a_suppression_name_here>
   Memcheck:Leak
   match-leak-kinds: possible
   fun:calloc
   fun:_ZL12_NXMapMemberP11_NXMapTablePKvPPv
   fun:_ZL11_mapStrHashP11_NXMapTablePKv
   fun:objc_release
   fun:_NSToDoAtProcessStart
   fun:_NSInitializePlatform
   fun:cache_fill
   fun:NXMapRemove
   fun:_ZN4dyldL12notifySingleE17dyld_image_statesPK11ImageLoader
   fun:_ZN11ImageLoader23recursiveInitializationERKNS_11LinkContextEjRNS_21InitializerTimingListERNS_15UninitedUpwardsE
   fun:_ZN11ImageLoader23recursiveInitializationERKNS_11LinkContextEjRNS_21InitializerTimingListERNS_15UninitedUpwardsE
   fun:_ZN11ImageLoader23recursiveInitializationERKNS_11LinkContextEjRNS_21InitializerTimingListERNS_15UninitedUpwardsE
}
{
   <insert_a_suppression_name_here>
   Memcheck:Leak
   match-leak-kinds: possible
   fun:calloc
   fun:_ZL12_NXMapMemberP11_NXMapTablePKvPPv
   fun:cache_getImp
   fun:_Z28_getObjc2NonlazyCategoryListPK14mach_header_64Pm
   fun:_ZL16attachCategoriesP10objc_classP26locstamped_category_list_tb
   fun:_NSInitializePlatform
   fun:cache_fill
   fun:NXMapRemove
   fun:_ZN4dyldL12notifySingleE17dyld_image_statesPK11ImageLoader
   fun:_ZN11ImageLoader23recursiveInitializationERKNS_11LinkContextEjRNS_21InitializerTimingListERNS_15UninitedUpwardsE
   fun:_ZN11ImageLoader23recursiveInitializationERKNS_11LinkContextEjRNS_21InitializerTimingListERNS_15UninitedUpwardsE
   fun:_ZN11ImageLoader23recursiveInitializationERKNS_11LinkContextEjRNS_21InitializerTimingListERNS_15UninitedUpwardsE
}
{
   <insert_a_suppression_name_here>
   Memcheck:Leak
   match-leak-kinds: possible
   fun:calloc
   fun:map_images_nolock
   fun:map_2_images
   fun:_ZN4dyldL18notifyBatchPartialE17dyld_image_statesbPFPKcS0_jPK15dyld_image_infoE
   fun:_ZN4dyld36registerImageStateBatchChangeHandlerE17dyld_image_statesPFPKcS0_jPK15dyld_image_infoE
   fun:dyld_register_image_state_change_handler
   fun:_objc_init
   fun:_os_object_init
   fun:libdispatch_init
   fun:libSystem_initializer
   fun:_ZN16ImageLoaderMachO18doModInitFunctionsERKN11ImageLoader11LinkContextE
   fun:_ZN16ImageLoaderMachO16doInitializationERKN11ImageLoader11LinkContextE
}
{
   <insert_a_suppression_name_here>
   Memcheck:Leak
   match-leak-kinds: indirect
   fun:malloc_zone_malloc
   fun:__CFBasicHashRehash
   fun:CFSetCreate
   fun:_GLOBAL__sub_I_Serializable.cpp
   fun:_ZN16ImageLoaderMachO18doModInitFunctionsERKN11ImageLoader11LinkContextE
   fun:_ZN16ImageLoaderMachO16doInitializationERKN11ImageLoader11LinkContextE
   fun:_ZN11ImageLoader23recursiveInitializationERKNS_11LinkContextEjRNS_21InitializerTimingListERNS_15UninitedUpwardsE
   fun:_ZN11ImageLoader23recursiveInitializationERKNS_11LinkContextEjRNS_21InitializerTimingListERNS_15UninitedUpwardsE
   fun:_ZN11ImageLoader23recursiveInitializationERKNS_11LinkContextEjRNS_21InitializerTimingListERNS_15UninitedUpwardsE
   fun:_ZN11ImageLoader23recursiveInitializationERKNS_11LinkContextEjRNS_21InitializerTimingListERNS_15UninitedUpwardsE
   fun:_ZN11ImageLoader23recursiveInitializationERKNS_11LinkContextEjRNS_21InitializerTimingListERNS_15UninitedUpwardsE
   fun:_ZN11ImageLoader23recursiveInitializationERKNS_11LinkContextEjRNS_21InitializerTimingListERNS_15UninitedUpwardsE
}
{
   <insert_a_suppression_name_here>
   Memcheck:Leak
   match-leak-kinds: indirect
   fun:calloc
   fun:NXMapRemove
   fun:_ZN12_GLOBAL__N_119AutoreleasePoolPage3popEPv
   fun:-[NSThread init]
   fun:____NSThreads_block_invoke
   fun:_dispatch_client_callout
   fun:dispatch_once_f
   fun:_NSThreadGet0
   fun:_NSInitializePlatform
   fun:cache_fill
   fun:NXMapRemove
   fun:_ZN4dyldL12notifySingleE17dyld_image_statesPK11ImageLoader
}
{
   <insert_a_suppression_name_here>
   Memcheck:Leak
   match-leak-kinds: reachable
   fun:calloc
   fun:_class_getNonMetaClass
   fun:lookUpImpOrForward
   fun:objc_msgSendSuper_stret
   fun:class_createInstance
   fun:_ZL16attachCategoriesP10objc_classP26locstamped_category_list_tb
   fun:-[NSThread init]
   fun:____NSThreads_block_invoke
   fun:_dispatch_client_callout
   fun:dispatch_once_f
   fun:_NSThreadGet0
   fun:_NSInitializePlatform
}
{
   <insert_a_suppression_name_here>
   Memcheck:Leak
   match-leak-kinds: reachable
   fun:calloc
   fun:_class_getNonMetaClass
   fun:lookUpImpOrForward
   fun:objc_msgSendSuper_stret
   fun:class_createInstance
   fun:_ZL16attachCategoriesP10objc_classP26locstamped_category_list_tb
   fun:+[DDGeoSource load]
   fun:_ZL19_finishInitializingP10objc_classS0_
   fun:NXMapRemove
   fun:_ZN4dyldL12notifySingleE17dyld_image_statesPK11ImageLoader
   fun:_ZN11ImageLoader23recursiveInitializationERKNS_11LinkContextEjRNS_21InitializerTimingListERNS_15UninitedUpwardsE
   fun:_ZN11ImageLoader23recursiveInitializationERKNS_11LinkContextEjRNS_21InitializerTimingListERNS_15UninitedUpwardsE
}
{
   <insert_a_suppression_name_here>
   Memcheck:Leak
   match-leak-kinds: reachable
   fun:calloc
   fun:_ZL12_NXMapMemberP11_NXMapTablePKvPPv
   fun:_ZL11_mapStrHashP11_NXMapTablePKv
   fun:_ZL11_mapStrHashP11_NXMapTablePKv
   fun:_ZL11_mapStrHashP11_NXMapTablePKv
   fun:objc_release
   fun:_object_remove_assocations
   fun:__CFInitialize
   fun:_ZN16ImageLoaderMachO11doImageInitERKN11ImageLoader11LinkContextE
   fun:_ZN16ImageLoaderMachO16doInitializationERKN11ImageLoader11LinkContextE
   fun:_ZN11ImageLoader23recursiveInitializationERKNS_11LinkContextEjRNS_21InitializerTimingListERNS_15UninitedUpwardsE
   fun:_ZN11ImageLoader23recursiveInitializationERKNS_11LinkContextEjRNS_21InitializerTimingListERNS_15UninitedUpwardsE
}
{
   <insert_a_suppression_name_here>
   Memcheck:Leak
   match-leak-kinds: possible
   fun:malloc_zone_calloc
   fun:NXCreateMapTable
   fun:_ZL12realizeClassP10objc_class
   fun:cache_getImp
   fun:_Z28_getObjc2NonlazyCategoryListPK14mach_header_64Pm
   fun:_ZL16attachCategoriesP10objc_classP26locstamped_category_list_tb
   fun:+[NSString initialize]
   fun:objc_msgSend_fpret
   fun:objc_msgSendSuper
   fun:_Z28_getObjc2NonlazyCategoryListPK14mach_header_64Pm
   fun:_ZL16attachCategoriesP10objc_classP26locstamped_category_list_tb
   fun:+[NSMutableString initialize]
}
{
   <insert_a_suppression_name_here>
   Memcheck:Leak
   match-leak-kinds: definite
   fun:malloc_zone_malloc
   fun:_CFRuntimeCreateInstance
   fun:CFBasicHashCreate
   fun:__CFSetCreateGeneric
   fun:CFSetCreate
   fun:_GLOBAL__sub_I_FTPProtocol.cpp
   fun:_ZN16ImageLoaderMachO18doModInitFunctionsERKN11ImageLoader11LinkContextE
   fun:_ZN16ImageLoaderMachO16doInitializationERKN11ImageLoader11LinkContextE
   fun:_ZN11ImageLoader23recursiveInitializationERKNS_11LinkContextEjRNS_21InitializerTimingListERNS_15UninitedUpwardsE
   fun:_ZN11ImageLoader23recursiveInitializationERKNS_11LinkContextEjRNS_21InitializerTimingListERNS_15UninitedUpwardsE
   fun:_ZN11ImageLoader23recursiveInitializationERKNS_11LinkContextEjRNS_21InitializerTimingListERNS_15UninitedUpwardsE
   fun:_ZN11ImageLoader23recursiveInitializationERKNS_11LinkContextEjRNS_21InitializerTimingListERNS_15UninitedUpwardsE
}
{
   <insert_a_suppression_name_here>
   Memcheck:Leak
   match-leak-kinds: indirect
   fun:malloc_zone_malloc
   fun:__CFBasicHashRehash
   fun:CFSetCreate
   fun:_GLOBAL__sub_I_URLConnectionClient.cpp
   fun:_ZN16ImageLoaderMachO18doModInitFunctionsERKN11ImageLoader11LinkContextE
   fun:_ZN16ImageLoaderMachO16doInitializationERKN11ImageLoader11LinkContextE
   fun:_ZN11ImageLoader23recursiveInitializationERKNS_11LinkContextEjRNS_21InitializerTimingListERNS_15UninitedUpwardsE
   fun:_ZN11ImageLoader23recursiveInitializationERKNS_11LinkContextEjRNS_21InitializerTimingListERNS_15UninitedUpwardsE
   fun:_ZN11ImageLoader23recursiveInitializationERKNS_11LinkContextEjRNS_21InitializerTimingListERNS_15UninitedUpwardsE
   fun:_ZN11ImageLoader23recursiveInitializationERKNS_11LinkContextEjRNS_21InitializerTimingListERNS_15UninitedUpwardsE
   fun:_ZN11ImageLoader23recursiveInitializationERKNS_11LinkContextEjRNS_21InitializerTimingListERNS_15UninitedUpwardsE
   fun:_ZN11ImageLoader23recursiveInitializationERKNS_11LinkContextEjRNS_21InitializerTimingListERNS_15UninitedUpwardsE
}
{
   <insert_a_suppression_name_here>
   Memcheck:Leak
   match-leak-kinds: indirect
   fun:malloc_zone_malloc
   fun:__CFBasicHashRehash
   fun:CFSetCreate
   fun:_GLOBAL__sub_I_SSPDYConnection.cpp
   fun:_ZN16ImageLoaderMachO18doModInitFunctionsERKN11ImageLoader11LinkContextE
   fun:_ZN16ImageLoaderMachO16doInitializationERKN11ImageLoader11LinkContextE
   fun:_ZN11ImageLoader23recursiveInitializationERKNS_11LinkContextEjRNS_21InitializerTimingListERNS_15UninitedUpwardsE
   fun:_ZN11ImageLoader23recursiveInitializationERKNS_11LinkContextEjRNS_21InitializerTimingListERNS_15UninitedUpwardsE
   fun:_ZN11ImageLoader23recursiveInitializationERKNS_11LinkContextEjRNS_21InitializerTimingListERNS_15UninitedUpwardsE
   fun:_ZN11ImageLoader23recursiveInitializationERKNS_11LinkContextEjRNS_21InitializerTimingListERNS_15UninitedUpwardsE
   fun:_ZN11ImageLoader23recursiveInitializationERKNS_11LinkContextEjRNS_21InitializerTimingListERNS_15UninitedUpwardsE
   fun:_ZN11ImageLoader23recursiveInitializationERKNS_11LinkContextEjRNS_21InitializerTimingListERNS_15UninitedUpwardsE
}
{
   <insert_a_suppression_name_here>
   Memcheck:Leak
   match-leak-kinds: indirect
   fun:malloc_zone_malloc
   fun:__CFBasicHashRehash
   fun:CFSetCreate
   fun:_GLOBAL__sub_I_CFURLConnectionSession.mm
   fun:_ZN16ImageLoaderMachO18doModInitFunctionsERKN11ImageLoader11LinkContextE
   fun:_ZN16ImageLoaderMachO16doInitializationERKN11ImageLoader11LinkContextE
   fun:_ZN11ImageLoader23recursiveInitializationERKNS_11LinkContextEjRNS_21InitializerTimingListERNS_15UninitedUpwardsE
   fun:_ZN11ImageLoader23recursiveInitializationERKNS_11LinkContextEjRNS_21InitializerTimingListERNS_15UninitedUpwardsE
   fun:_ZN11ImageLoader23recursiveInitializationERKNS_11LinkContextEjRNS_21InitializerTimingListERNS_15UninitedUpwardsE
   fun:_ZN11ImageLoader23recursiveInitializationERKNS_11LinkContextEjRNS_21InitializerTimingListERNS_15UninitedUpwardsE
   fun:_ZN11ImageLoader23recursiveInitializationERKNS_11LinkContextEjRNS_21InitializerTimingListERNS_15UninitedUpwardsE
   fun:_ZN11ImageLoader23recursiveInitializationERKNS_11LinkContextEjRNS_21InitializerTimingListERNS_15UninitedUpwardsE
}
{
   <insert_a_suppression_name_here>
   Memcheck:Leak
   match-leak-kinds: possible
   fun:malloc
   fun:_ZL12realizeClassP10objc_class
   fun:_ZL12realizeClassP10objc_class
   fun:_ZL12realizeClassP10objc_class
   fun:_ZL11_mapStrHashP11_NXMapTablePKv
   fun:objc_release
   fun:_NSToDoAtProcessStart
   fun:_NSInitializePlatform
   fun:cache_fill
   fun:NXMapRemove
   fun:_ZN4dyldL12notifySingleE17dyld_image_statesPK11ImageLoader
   fun:_ZN11ImageLoader23recursiveInitializationERKNS_11LinkContextEjRNS_21InitializerTimingListERNS_15UninitedUpwardsE
}
{
   <insert_a_suppression_name_here>
   Memcheck:Leak
   match-leak-kinds: reachable
   fun:calloc
   fun:_class_getNonMetaClass
   fun:lookUpImpOrForward
   fun:objc_msgSendSuper_stret
   fun:class_createInstance
   fun:_ZL16attachCategoriesP10objc_classP26locstamped_category_list_tb
   fun:+[__NSDictionaryI __new:::::]
   fun:-[__NSPlaceholderDictionary initWithObjects:forKeys:count:]
   fun:+[NSDictionary dictionaryWithObjects:forKeys:count:]
   fun:__31+[DDGeoSource tableNameMapping]_block_invoke
   fun:_dispatch_client_callout
   fun:dispatch_once_f
}
{
   <insert_a_suppression_name_here>
   Memcheck:Leak
   match-leak-kinds: indirect
   fun:malloc_zone_malloc
   fun:__CFBasicHashRehash
   fun:CFSetCreate
   fun:_GLOBAL__sub_I_PACSupport.c
   fun:_ZN16ImageLoaderMachO18doModInitFunctionsERKN11ImageLoader11LinkContextE
   fun:_ZN16ImageLoaderMachO16doInitializationERKN11ImageLoader11LinkContextE
   fun:_ZN11ImageLoader23recursiveInitializationERKNS_11LinkContextEjRNS_21InitializerTimingListERNS_15UninitedUpwardsE
   fun:_ZN11ImageLoader23recursiveInitializationERKNS_11LinkContextEjRNS_21InitializerTimingListERNS_15UninitedUpwardsE
   fun:_ZN11ImageLoader23recursiveInitializationERKNS_11LinkContextEjRNS_21InitializerTimingListERNS_15UninitedUpwardsE
   fun:_ZN11ImageLoader23recursiveInitializationERKNS_11LinkContextEjRNS_21InitializerTimingListERNS_15UninitedUpwardsE
   fun:_ZN11ImageLoader23recursiveInitializationERKNS_11LinkContextEjRNS_21InitializerTimingListERNS_15UninitedUpwardsE
   fun:_ZN11ImageLoader23recursiveInitializationERKNS_11LinkContextEjRNS_21InitializerTimingListERNS_15UninitedUpwardsE
}
{
   <insert_a_suppression_name_here>
   Memcheck:Leak
   match-leak-kinds: reachable
   fun:calloc
   fun:_ZL12_NXMapMemberP11_NXMapTablePKvPPv
   fun:_ZL11_mapStrHashP11_NXMapTablePKv
   fun:objc_release
   fun:__CFMakeNSBlockClasses
   fun:__CFInitialize
   fun:_ZN16ImageLoaderMachO11doImageInitERKN11ImageLoader11LinkContextE
   fun:_ZN16ImageLoaderMachO16doInitializationERKN11ImageLoader11LinkContextE
   fun:_ZN11ImageLoader23recursiveInitializationERKNS_11LinkContextEjRNS_21InitializerTimingListERNS_15UninitedUpwardsE
   fun:_ZN11ImageLoader23recursiveInitializationERKNS_11LinkContextEjRNS_21InitializerTimingListERNS_15UninitedUpwardsE
   fun:_ZN11ImageLoader23recursiveInitializationERKNS_11LinkContextEjRNS_21InitializerTimingListERNS_15UninitedUpwardsE
   fun:_ZN11ImageLoader23recursiveInitializationERKNS_11LinkContextEjRNS_21InitializerTimingListERNS_15UninitedUpwardsE
}
{
   <insert_a_suppression_name_here>
   Memcheck:Leak
   match-leak-kinds: indirect
   fun:malloc_zone_malloc
   fun:__CFBasicHashRehash
   fun:CFSetCreate
   fun:_GLOBAL__sub_I_HTTPConnectionCacheEntry.cpp
   fun:_ZN16ImageLoaderMachO18doModInitFunctionsERKN11ImageLoader11LinkContextE
   fun:_ZN16ImageLoaderMachO16doInitializationERKN11ImageLoader11LinkContextE
   fun:_ZN11ImageLoader23recursiveInitializationERKNS_11LinkContextEjRNS_21InitializerTimingListERNS_15UninitedUpwardsE
   fun:_ZN11ImageLoader23recursiveInitializationERKNS_11LinkContextEjRNS_21InitializerTimingListERNS_15UninitedUpwardsE
   fun:_ZN11ImageLoader23recursiveInitializationERKNS_11LinkContextEjRNS_21InitializerTimingListERNS_15UninitedUpwardsE
   fun:_ZN11ImageLoader23recursiveInitializationERKNS_11LinkContextEjRNS_21InitializerTimingListERNS_15UninitedUpwardsE
   fun:_ZN11ImageLoader23recursiveInitializationERKNS_11LinkContextEjRNS_21InitializerTimingListERNS_15UninitedUpwardsE
   fun:_ZN11ImageLoader23recursiveInitializationERKNS_11LinkContextEjRNS_21InitializerTimingListERNS_15UninitedUpwardsE
}
{
   <insert_a_suppression_name_here>
   Memcheck:Leak
   match-leak-kinds: definite
   fun:malloc_zone_malloc
   fun:_CFRuntimeCreateInstance
   fun:CFBasicHashCreate
   fun:__CFSetCreateGeneric
   fun:CFSetCreate
   fun:_GLOBAL__sub_I_SHTTP2ConnectionCache.cpp
   fun:_ZN16ImageLoaderMachO18doModInitFunctionsERKN11ImageLoader11LinkContextE
   fun:_ZN16ImageLoaderMachO16doInitializationERKN11ImageLoader11LinkContextE
   fun:_ZN11ImageLoader23recursiveInitializationERKNS_11LinkContextEjRNS_21InitializerTimingListERNS_15UninitedUpwardsE
   fun:_ZN11ImageLoader23recursiveInitializationERKNS_11LinkContextEjRNS_21InitializerTimingListERNS_15UninitedUpwardsE
   fun:_ZN11ImageLoader23recursiveInitializationERKNS_11LinkContextEjRNS_21InitializerTimingListERNS_15UninitedUpwardsE
   fun:_ZN11ImageLoader23recursiveInitializationERKNS_11LinkContextEjRNS_21InitializerTimingListERNS_15UninitedUpwardsE
}
{
   <insert_a_suppression_name_here>
   Memcheck:Leak
   match-leak-kinds: indirect
   fun:calloc
   fun:NXMapRemove
   fun:_ZN12_GLOBAL__N_119AutoreleasePoolPage3popEPv
   fun:____NSThreads_block_invoke
   fun:_dispatch_client_callout
   fun:dispatch_once_f
   fun:_NSThreadGet0
   fun:_NSInitializePlatform
   fun:cache_fill
   fun:NXMapRemove
   fun:_ZN4dyldL12notifySingleE17dyld_image_statesPK11ImageLoader
   fun:_ZN11ImageLoader23recursiveInitializationERKNS_11LinkContextEjRNS_21InitializerTimingListERNS_15UninitedUpwardsE
}
{
   <insert_a_suppression_name_here>
   Memcheck:Leak
   match-leak-kinds: reachable
   fun:malloc_zone_malloc
   fun:__CFBasicHashRehash
   fun:CFSetCreate
   fun:_GLOBAL__sub_I_CFSocketStream.c
   fun:_ZN16ImageLoaderMachO18doModInitFunctionsERKN11ImageLoader11LinkContextE
   fun:_ZN16ImageLoaderMachO16doInitializationERKN11ImageLoader11LinkContextE
   fun:_ZN11ImageLoader23recursiveInitializationERKNS_11LinkContextEjRNS_21InitializerTimingListERNS_15UninitedUpwardsE
   fun:_ZN11ImageLoader23recursiveInitializationERKNS_11LinkContextEjRNS_21InitializerTimingListERNS_15UninitedUpwardsE
   fun:_ZN11ImageLoader23recursiveInitializationERKNS_11LinkContextEjRNS_21InitializerTimingListERNS_15UninitedUpwardsE
   fun:_ZN11ImageLoader23recursiveInitializationERKNS_11LinkContextEjRNS_21InitializerTimingListERNS_15UninitedUpwardsE
   fun:_ZN11ImageLoader23recursiveInitializationERKNS_11LinkContextEjRNS_21InitializerTimingListERNS_15UninitedUpwardsE
   fun:_ZN11ImageLoader23recursiveInitializationERKNS_11LinkContextEjRNS_21InitializerTimingListERNS_15UninitedUpwardsE
}
{
   <insert_a_suppression_name_here>
   Memcheck:Leak
   match-leak-kinds: possible
   fun:malloc_zone_calloc
   fun:NXCreateMapTable
   fun:_ZL12realizeClassP10objc_class
   fun:objc_release
   fun:_NSToDoAtProcessStart
   fun:_NSInitializePlatform
   fun:cache_fill
   fun:NXMapRemove
   fun:_ZN4dyldL12notifySingleE17dyld_image_statesPK11ImageLoader
   fun:_ZN11ImageLoader23recursiveInitializationERKNS_11LinkContextEjRNS_21InitializerTimingListERNS_15UninitedUpwardsE
   fun:_ZN11ImageLoader23recursiveInitializationERKNS_11LinkContextEjRNS_21InitializerTimingListERNS_15UninitedUpwardsE
   fun:_ZN11ImageLoader23recursiveInitializationERKNS_11LinkContextEjRNS_21InitializerTimingListERNS_15UninitedUpwardsE
}
{
   <insert_a_suppression_name_here>
   Memcheck:Leak
   match-leak-kinds: reachable
   fun:calloc
   fun:NXMapRemove
   fun:_ZN12_GLOBAL__N_119AutoreleasePoolPage17autoreleaseNoPageEP11objc_object
   fun:+[NSArray allocWithZone:]
   fun:+[__NSArray0 _alloc]
   fun:__CFInitialize
   fun:_ZN16ImageLoaderMachO11doImageInitERKN11ImageLoader11LinkContextE
   fun:_ZN16ImageLoaderMachO16doInitializationERKN11ImageLoader11LinkContextE
   fun:_ZN11ImageLoader23recursiveInitializationERKNS_11LinkContextEjRNS_21InitializerTimingListERNS_15UninitedUpwardsE
   fun:_ZN11ImageLoader23recursiveInitializationERKNS_11LinkContextEjRNS_21InitializerTimingListERNS_15UninitedUpwardsE
   fun:_ZN11ImageLoader23recursiveInitializationERKNS_11LinkContextEjRNS_21InitializerTimingListERNS_15UninitedUpwardsE
   fun:_ZN11ImageLoader23recursiveInitializationERKNS_11LinkContextEjRNS_21InitializerTimingListERNS_15UninitedUpwardsE
}
{
   <insert_a_suppression_name_here>
   Memcheck:Leak
   match-leak-kinds: indirect
   fun:malloc_zone_malloc
   fun:__CFBasicHashRehash
   fun:CFSetCreate
   fun:_GLOBAL__sub_I_HTTPAuthentication.cpp
   fun:_ZN16ImageLoaderMachO18doModInitFunctionsERKN11ImageLoader11LinkContextE
   fun:_ZN16ImageLoaderMachO16doInitializationERKN11ImageLoader11LinkContextE
   fun:_ZN11ImageLoader23recursiveInitializationERKNS_11LinkContextEjRNS_21InitializerTimingListERNS_15UninitedUpwardsE
   fun:_ZN11ImageLoader23recursiveInitializationERKNS_11LinkContextEjRNS_21InitializerTimingListERNS_15UninitedUpwardsE
   fun:_ZN11ImageLoader23recursiveInitializationERKNS_11LinkContextEjRNS_21InitializerTimingListERNS_15UninitedUpwardsE
   fun:_ZN11ImageLoader23recursiveInitializationERKNS_11LinkContextEjRNS_21InitializerTimingListERNS_15UninitedUpwardsE
   fun:_ZN11ImageLoader23recursiveInitializationERKNS_11LinkContextEjRNS_21InitializerTimingListERNS_15UninitedUpwardsE
   fun:_ZN11ImageLoader23recursiveInitializationERKNS_11LinkContextEjRNS_21InitializerTimingListERNS_15UninitedUpwardsE
}
{
   <insert_a_suppression_name_here>
   Memcheck:Leak
   match-leak-kinds: indirect
   fun:malloc_zone_malloc
   fun:__CFBasicHashRehash
   fun:CFSetCreate
   fun:_GLOBAL__sub_I_CFURLCredential.c
   fun:_ZN16ImageLoaderMachO18doModInitFunctionsERKN11ImageLoader11LinkContextE
   fun:_ZN16ImageLoaderMachO16doInitializationERKN11ImageLoader11LinkContextE
   fun:_ZN11ImageLoader23recursiveInitializationERKNS_11LinkContextEjRNS_21InitializerTimingListERNS_15UninitedUpwardsE
   fun:_ZN11ImageLoader23recursiveInitializationERKNS_11LinkContextEjRNS_21InitializerTimingListERNS_15UninitedUpwardsE
   fun:_ZN11ImageLoader23recursiveInitializationERKNS_11LinkContextEjRNS_21InitializerTimingListERNS_15UninitedUpwardsE
   fun:_ZN11ImageLoader23recursiveInitializationERKNS_11LinkContextEjRNS_21InitializerTimingListERNS_15UninitedUpwardsE
   fun:_ZN11ImageLoader23recursiveInitializationERKNS_11LinkContextEjRNS_21InitializerTimingListERNS_15UninitedUpwardsE
   fun:_ZN11ImageLoader23recursiveInitializationERKNS_11LinkContextEjRNS_21InitializerTimingListERNS_15UninitedUpwardsE
}
{
   <insert_a_suppression_name_here>
   Memcheck:Leak
   match-leak-kinds: definite
   fun:malloc_zone_malloc
   fun:_CFRuntimeCreateInstance
   fun:CFBasicHashCreate
   fun:__CFSetCreateGeneric
   fun:CFSetCreate
   fun:_GLOBAL__sub_I_SHTTPConnectionCacheEntry.cpp
   fun:_ZN16ImageLoaderMachO18doModInitFunctionsERKN11ImageLoader11LinkContextE
   fun:_ZN16ImageLoaderMachO16doInitializationERKN11ImageLoader11LinkContextE
   fun:_ZN11ImageLoader23recursiveInitializationERKNS_11LinkContextEjRNS_21InitializerTimingListERNS_15UninitedUpwardsE
   fun:_ZN11ImageLoader23recursiveInitializationERKNS_11LinkContextEjRNS_21InitializerTimingListERNS_15UninitedUpwardsE
   fun:_ZN11ImageLoader23recursiveInitializationERKNS_11LinkContextEjRNS_21InitializerTimingListERNS_15UninitedUpwardsE
   fun:_ZN11ImageLoader23recursiveInitializationERKNS_11LinkContextEjRNS_21InitializerTimingListERNS_15UninitedUpwardsE
}
{
   <insert_a_suppression_name_here>
   Memcheck:Leak
   match-leak-kinds: definite
   fun:malloc_zone_malloc
   fun:_CFRuntimeCreateInstance
   fun:CFBasicHashCreate
   fun:__CFSetCreateGeneric
   fun:CFSetCreate
   fun:_GLOBAL__sub_I_CFNetworkInternalExternal.cpp
   fun:_ZN16ImageLoaderMachO18doModInitFunctionsERKN11ImageLoader11LinkContextE
   fun:_ZN16ImageLoaderMachO16doInitializationERKN11ImageLoader11LinkContextE
   fun:_ZN11ImageLoader23recursiveInitializationERKNS_11LinkContextEjRNS_21InitializerTimingListERNS_15UninitedUpwardsE
   fun:_ZN11ImageLoader23recursiveInitializationERKNS_11LinkContextEjRNS_21InitializerTimingListERNS_15UninitedUpwardsE
   fun:_ZN11ImageLoader23recursiveInitializationERKNS_11LinkContextEjRNS_21InitializerTimingListERNS_15UninitedUpwardsE
   fun:_ZN11ImageLoader23recursiveInitializationERKNS_11LinkContextEjRNS_21InitializerTimingListERNS_15UninitedUpwardsE
}
{
   <insert_a_suppression_name_here>
   Memcheck:Leak
   match-leak-kinds: reachable
   fun:calloc
   fun:NXMapRemove
   fun:_ZL19schedule_class_loadP10objc_class
   fun:+[NSMergePolicy load]
   fun:_ZL19_finishInitializingP10objc_classS0_
   fun:NXMapRemove
   fun:_ZN4dyldL12notifySingleE17dyld_image_statesPK11ImageLoader
   fun:_ZN11ImageLoader23recursiveInitializationERKNS_11LinkContextEjRNS_21InitializerTimingListERNS_15UninitedUpwardsE
   fun:_ZN11ImageLoader23recursiveInitializationERKNS_11LinkContextEjRNS_21InitializerTimingListERNS_15UninitedUpwardsE
   fun:_ZN11ImageLoader23recursiveInitializationERKNS_11LinkContextEjRNS_21InitializerTimingListERNS_15UninitedUpwardsE
   fun:_ZN11ImageLoader23recursiveInitializationERKNS_11LinkContextEjRNS_21InitializerTimingListERNS_15UninitedUpwardsE
   fun:_ZN11ImageLoader23recursiveInitializationERKNS_11LinkContextEjRNS_21InitializerTimingListERNS_15UninitedUpwardsE
}
{
   <insert_a_suppression_name_here>
   Memcheck:Leak
   match-leak-kinds: definite
   fun:malloc_zone_malloc
   fun:_CFRuntimeCreateInstance
   fun:CFBasicHashCreate
   fun:__CFSetCreateGeneric
   fun:CFSetCreate
   fun:_GLOBAL__sub_I_URLCredentialKerberosTicket.cpp
   fun:_ZN16ImageLoaderMachO18doModInitFunctionsERKN11ImageLoader11LinkContextE
   fun:_ZN16ImageLoaderMachO16doInitializationERKN11ImageLoader11LinkContextE
   fun:_ZN11ImageLoader23recursiveInitializationERKNS_11LinkContextEjRNS_21InitializerTimingListERNS_15UninitedUpwardsE
   fun:_ZN11ImageLoader23recursiveInitializationERKNS_11LinkContextEjRNS_21InitializerTimingListERNS_15UninitedUpwardsE
   fun:_ZN11ImageLoader23recursiveInitializationERKNS_11LinkContextEjRNS_21InitializerTimingListERNS_15UninitedUpwardsE
   fun:_ZN11ImageLoader23recursiveInitializationERKNS_11LinkContextEjRNS_21InitializerTimingListERNS_15UninitedUpwardsE
}
{
   <insert_a_suppression_name_here>
   Memcheck:Leak
   match-leak-kinds: definite
   fun:malloc_zone_malloc
   fun:_CFRuntimeCreateInstance
   fun:CFBasicHashCreate
   fun:__CFSetCreateGeneric
   fun:CFSetCreate
   fun:_GLOBAL__sub_I_CFURLCredentialStorage.c
   fun:_ZN16ImageLoaderMachO18doModInitFunctionsERKN11ImageLoader11LinkContextE
   fun:_ZN16ImageLoaderMachO16doInitializationERKN11ImageLoader11LinkContextE
   fun:_ZN11ImageLoader23recursiveInitializationERKNS_11LinkContextEjRNS_21InitializerTimingListERNS_15UninitedUpwardsE
   fun:_ZN11ImageLoader23recursiveInitializationERKNS_11LinkContextEjRNS_21InitializerTimingListERNS_15UninitedUpwardsE
   fun:_ZN11ImageLoader23recursiveInitializationERKNS_11LinkContextEjRNS_21InitializerTimingListERNS_15UninitedUpwardsE
   fun:_ZN11ImageLoader23recursiveInitializationERKNS_11LinkContextEjRNS_21InitializerTimingListERNS_15UninitedUpwardsE
}
{
   <insert_a_suppression_name_here>
   Memcheck:Leak
   match-leak-kinds: definite
   fun:malloc_zone_malloc
   fun:_CFRuntimeCreateInstance
   fun:CFBasicHashCreate
   fun:__CFSetCreateGeneric
   fun:CFSetCreate
   fun:_GLOBAL__sub_I_SSPDYConnectionCacheEntry.cpp
   fun:_ZN16ImageLoaderMachO18doModInitFunctionsERKN11ImageLoader11LinkContextE
   fun:_ZN16ImageLoaderMachO16doInitializationERKN11ImageLoader11LinkContextE
   fun:_ZN11ImageLoader23recursiveInitializationERKNS_11LinkContextEjRNS_21InitializerTimingListERNS_15UninitedUpwardsE
   fun:_ZN11ImageLoader23recursiveInitializationERKNS_11LinkContextEjRNS_21InitializerTimingListERNS_15UninitedUpwardsE
   fun:_ZN11ImageLoader23recursiveInitializationERKNS_11LinkContextEjRNS_21InitializerTimingListERNS_15UninitedUpwardsE
   fun:_ZN11ImageLoader23recursiveInitializationERKNS_11LinkContextEjRNS_21InitializerTimingListERNS_15UninitedUpwardsE
}
{
   <insert_a_suppression_name_here>
   Memcheck:Leak
   match-leak-kinds: definite
   fun:malloc_zone_malloc
   fun:_CFRuntimeCreateInstance
   fun:CFBasicHashCreate
   fun:__CFSetCreateGeneric
   fun:CFSetCreate
   fun:_GLOBAL__sub_I_SHTTP2Stream.cpp
   fun:_ZN16ImageLoaderMachO18doModInitFunctionsERKN11ImageLoader11LinkContextE
   fun:_ZN16ImageLoaderMachO16doInitializationERKN11ImageLoader11LinkContextE
   fun:_ZN11ImageLoader23recursiveInitializationERKNS_11LinkContextEjRNS_21InitializerTimingListERNS_15UninitedUpwardsE
   fun:_ZN11ImageLoader23recursiveInitializationERKNS_11LinkContextEjRNS_21InitializerTimingListERNS_15UninitedUpwardsE
   fun:_ZN11ImageLoader23recursiveInitializationERKNS_11LinkContextEjRNS_21InitializerTimingListERNS_15UninitedUpwardsE
   fun:_ZN11ImageLoader23recursiveInitializationERKNS_11LinkContextEjRNS_21InitializerTimingListERNS_15UninitedUpwardsE
}
{
   <insert_a_suppression_name_here>
   Memcheck:Leak
   match-leak-kinds: reachable
   fun:calloc
   fun:_ZL12_NXMapMemberP11_NXMapTablePKvPPv
   fun:_ZL11_mapStrHashP11_NXMapTablePKv
   fun:_ZL11_mapStrHashP11_NXMapTablePKv
   fun:objc_release
   fun:__CFInitialize
   fun:_ZN16ImageLoaderMachO11doImageInitERKN11ImageLoader11LinkContextE
   fun:_ZN16ImageLoaderMachO16doInitializationERKN11ImageLoader11LinkContextE
   fun:_ZN11ImageLoader23recursiveInitializationERKNS_11LinkContextEjRNS_21InitializerTimingListERNS_15UninitedUpwardsE
   fun:_ZN11ImageLoader23recursiveInitializationERKNS_11LinkContextEjRNS_21InitializerTimingListERNS_15UninitedUpwardsE
   fun:_ZN11ImageLoader23recursiveInitializationERKNS_11LinkContextEjRNS_21InitializerTimingListERNS_15UninitedUpwardsE
   fun:_ZN11ImageLoader23recursiveInitializationERKNS_11LinkContextEjRNS_21InitializerTimingListERNS_15UninitedUpwardsE
}
{
   <insert_a_suppression_name_here>
   Memcheck:Leak
   match-leak-kinds: indirect
   fun:malloc_zone_malloc
   fun:__CFBasicHashRehash
   fun:CFSetCreate
   fun:_GLOBAL__sub_I_FileProtocol.cpp
   fun:_ZN16ImageLoaderMachO18doModInitFunctionsERKN11ImageLoader11LinkContextE
   fun:_ZN16ImageLoaderMachO16doInitializationERKN11ImageLoader11LinkContextE
   fun:_ZN11ImageLoader23recursiveInitializationERKNS_11LinkContextEjRNS_21InitializerTimingListERNS_15UninitedUpwardsE
   fun:_ZN11ImageLoader23recursiveInitializationERKNS_11LinkContextEjRNS_21InitializerTimingListERNS_15UninitedUpwardsE
   fun:_ZN11ImageLoader23recursiveInitializationERKNS_11LinkContextEjRNS_21InitializerTimingListERNS_15UninitedUpwardsE
   fun:_ZN11ImageLoader23recursiveInitializationERKNS_11LinkContextEjRNS_21InitializerTimingListERNS_15UninitedUpwardsE
   fun:_ZN11ImageLoader23recursiveInitializationERKNS_11LinkContextEjRNS_21InitializerTimingListERNS_15UninitedUpwardsE
   fun:_ZN11ImageLoader23recursiveInitializationERKNS_11LinkContextEjRNS_21InitializerTimingListERNS_15UninitedUpwardsE
}
{
   <insert_a_suppression_name_here>
   Memcheck:Leak
   match-leak-kinds: indirect
   fun:malloc_zone_malloc
   fun:__CFBasicHashRehash
   fun:CFSetCreate
   fun:_GLOBAL__sub_I_URLCredentialOAuth1.cpp
   fun:_ZN16ImageLoaderMachO18doModInitFunctionsERKN11ImageLoader11LinkContextE
   fun:_ZN16ImageLoaderMachO16doInitializationERKN11ImageLoader11LinkContextE
   fun:_ZN11ImageLoader23recursiveInitializationERKNS_11LinkContextEjRNS_21InitializerTimingListERNS_15UninitedUpwardsE
   fun:_ZN11ImageLoader23recursiveInitializationERKNS_11LinkContextEjRNS_21InitializerTimingListERNS_15UninitedUpwardsE
   fun:_ZN11ImageLoader23recursiveInitializationERKNS_11LinkContextEjRNS_21InitializerTimingListERNS_15UninitedUpwardsE
   fun:_ZN11ImageLoader23recursiveInitializationERKNS_11LinkContextEjRNS_21InitializerTimingListERNS_15UninitedUpwardsE
   fun:_ZN11ImageLoader23recursiveInitializationERKNS_11LinkContextEjRNS_21InitializerTimingListERNS_15UninitedUpwardsE
   fun:_ZN11ImageLoader23recursiveInitializationERKNS_11LinkContextEjRNS_21InitializerTimingListERNS_15UninitedUpwardsE
}
{
   <insert_a_suppression_name_here>
   Memcheck:Leak
   match-leak-kinds: definite
   fun:malloc_zone_malloc
   fun:_CFRuntimeCreateInstance
   fun:CFBasicHashCreate
   fun:__CFSetCreateGeneric
   fun:CFSetCreate
   fun:_GLOBAL__sub_I_URLCredentialOAuth2.cpp
   fun:_ZN16ImageLoaderMachO18doModInitFunctionsERKN11ImageLoader11LinkContextE
   fun:_ZN16ImageLoaderMachO16doInitializationERKN11ImageLoader11LinkContextE
   fun:_ZN11ImageLoader23recursiveInitializationERKNS_11LinkContextEjRNS_21InitializerTimingListERNS_15UninitedUpwardsE
   fun:_ZN11ImageLoader23recursiveInitializationERKNS_11LinkContextEjRNS_21InitializerTimingListERNS_15UninitedUpwardsE
   fun:_ZN11ImageLoader23recursiveInitializationERKNS_11LinkContextEjRNS_21InitializerTimingListERNS_15UninitedUpwardsE
   fun:_ZN11ImageLoader23recursiveInitializationERKNS_11LinkContextEjRNS_21InitializerTimingListERNS_15UninitedUpwardsE
}
{
   <insert_a_suppression_name_here>
   Memcheck:Leak
   match-leak-kinds: possible
   fun:malloc
   fun:_ZL12realizeClassP10objc_class
   fun:_ZL12realizeClassP10objc_class
   fun:_ZL12realizeClassP10objc_class
   fun:_ZL11_mapStrHashP11_NXMapTablePKv
   fun:_ZL11_mapStrHashP11_NXMapTablePKv
   fun:objc_release
   fun:_NSToDoAtProcessStart
   fun:_NSInitializePlatform
   fun:cache_fill
   fun:NXMapRemove
   fun:_ZN4dyldL12notifySingleE17dyld_image_statesPK11ImageLoader
}
{
   <insert_a_suppression_name_here>
   Memcheck:Leak
   match-leak-kinds: reachable
   fun:calloc
   fun:_class_getNonMetaClass
   fun:lookUpImpOrForward
   fun:objc_msgSendSuper2_stret
   fun:class_createInstance
   fun:_ZL16attachCategoriesP10objc_classP26locstamped_category_list_tb
   fun:CFURLCreateStringWithFileSystemPath
   fun:CFURLGetFileSystemRepresentation
   fun:_CFBundleGetBundleVersionForURL
   fun:_CFBundleCreate
   fun:_CFBundleGetMainBundleAlreadyLocked
   fun:CFBundleGetMainBundle
}
{
   <insert_a_suppression_name_here>
   Memcheck:Leak
   match-leak-kinds: indirect
   fun:malloc_zone_malloc
   fun:__CFBasicHashRehash
   fun:CFSetCreate
   fun:_GLOBAL__sub_I_CFURLRequest.c
   fun:_ZN16ImageLoaderMachO18doModInitFunctionsERKN11ImageLoader11LinkContextE
   fun:_ZN16ImageLoaderMachO16doInitializationERKN11ImageLoader11LinkContextE
   fun:_ZN11ImageLoader23recursiveInitializationERKNS_11LinkContextEjRNS_21InitializerTimingListERNS_15UninitedUpwardsE
   fun:_ZN11ImageLoader23recursiveInitializationERKNS_11LinkContextEjRNS_21InitializerTimingListERNS_15UninitedUpwardsE
   fun:_ZN11ImageLoader23recursiveInitializationERKNS_11LinkContextEjRNS_21InitializerTimingListERNS_15UninitedUpwardsE
   fun:_ZN11ImageLoader23recursiveInitializationERKNS_11LinkContextEjRNS_21InitializerTimingListERNS_15UninitedUpwardsE
   fun:_ZN11ImageLoader23recursiveInitializationERKNS_11LinkContextEjRNS_21InitializerTimingListERNS_15UninitedUpwardsE
   fun:_ZN11ImageLoader23recursiveInitializationERKNS_11LinkContextEjRNS_21InitializerTimingListERNS_15UninitedUpwardsE
}
{
   <insert_a_suppression_name_here>
   Memcheck:Leak
   match-leak-kinds: reachable
   fun:malloc
   fun:atexit_register
   fun:__cxa_atexit
   fun:__cxx_global_var_init23
   fun:_GLOBAL__sub_I_gtest_all.cc
   fun:_ZN16ImageLoaderMachO18doModInitFunctionsERKN11ImageLoader11LinkContextE
   fun:_ZN16ImageLoaderMachO16doInitializationERKN11ImageLoader11LinkContextE
   fun:_ZN11ImageLoader23recursiveInitializationERKNS_11LinkContextEjRNS_21InitializerTimingListERNS_15UninitedUpwardsE
   fun:_ZN11ImageLoader19processInitializersERKNS_11LinkContextEjRNS_21InitializerTimingListERNS_15UninitedUpwardsE
   fun:_ZN11ImageLoader15runInitializersERKNS_11LinkContextERNS_21InitializerTimingListE
   fun:_ZN4dyld24initializeMainExecutableEv
   fun:_ZN4dyld5_mainEPK12macho_headermiPPKcS5_S5_Pm
}
{
   <insert_a_suppression_name_here>
   Memcheck:Leak
   match-leak-kinds: definite
   fun:calloc
   fun:NXMapRemove
   fun:_ZN12_GLOBAL__N_119AutoreleasePoolPage3popEPv
   fun:__29+[__NSDictionaryM initialize]_block_invoke
   fun:_dispatch_client_callout
   fun:dispatch_once_f
   fun:objc_msgSend_fpret
   fun:_Z28_getObjc2NonlazyCategoryListPK14mach_header_64Pm
   fun:_ZL16attachCategoriesP10objc_classP26locstamped_category_list_tb
   fun:-[__NSPlaceholderDictionary initWithCapacity:]
   fun:-[NSThread init]
   fun:____NSThreads_block_invoke
}
{
   <insert_a_suppression_name_here>
   Memcheck:Leak
   match-leak-kinds: definite
   fun:malloc_zone_malloc
   fun:_CFRuntimeCreateInstance
   fun:CFBasicHashCreate
   fun:__CFSetCreateGeneric
   fun:CFSetCreate
   fun:_GLOBAL__sub_I_SocketStream.cpp
   fun:_ZN16ImageLoaderMachO18doModInitFunctionsERKN11ImageLoader11LinkContextE
   fun:_ZN16ImageLoaderMachO16doInitializationERKN11ImageLoader11LinkContextE
   fun:_ZN11ImageLoader23recursiveInitializationERKNS_11LinkContextEjRNS_21InitializerTimingListERNS_15UninitedUpwardsE
   fun:_ZN11ImageLoader23recursiveInitializationERKNS_11LinkContextEjRNS_21InitializerTimingListERNS_15UninitedUpwardsE
   fun:_ZN11ImageLoader23recursiveInitializationERKNS_11LinkContextEjRNS_21InitializerTimingListERNS_15UninitedUpwardsE
   fun:_ZN11ImageLoader23recursiveInitializationERKNS_11LinkContextEjRNS_21InitializerTimingListERNS_15UninitedUpwardsE
}
{
   <insert_a_suppression_name_here>
   Memcheck:Leak
   match-leak-kinds: definite
   fun:malloc
   fun:_Znwm
   fun:_ZN2cv3ippL15getIPPSingeltonEv
   fun:_ZN2cv3ipp14getIppFeaturesEv
   fun:_GLOBAL__sub_I_main.cpp
   fun:_ZN16ImageLoaderMachO18doModInitFunctionsERKN11ImageLoader11LinkContextE
   fun:_ZN16ImageLoaderMachO16doInitializationERKN11ImageLoader11LinkContextE
   fun:_ZN11ImageLoader23recursiveInitializationERKNS_11LinkContextEjRNS_21InitializerTimingListERNS_15UninitedUpwardsE
   fun:_ZN11ImageLoader23recursiveInitializationERKNS_11LinkContextEjRNS_21InitializerTimingListERNS_15UninitedUpwardsE
   fun:_ZN11ImageLoader23recursiveInitializationERKNS_11LinkContextEjRNS_21InitializerTimingListERNS_15UninitedUpwardsE
   fun:_ZN11ImageLoader23recursiveInitializationERKNS_11LinkContextEjRNS_21InitializerTimingListERNS_15UninitedUpwardsE
   fun:_ZN11ImageLoader23recursiveInitializationERKNS_11LinkContextEjRNS_21InitializerTimingListERNS_15UninitedUpwardsE
}
{
   <insert_a_suppression_name_here>
   Memcheck:Leak
   match-leak-kinds: reachable
   fun:malloc
   fun:atexit_register
   fun:__cxa_atexit
   fun:_ZN16ImageLoaderMachO18doModInitFunctionsERKN11ImageLoader11LinkContextE
   fun:_ZN16ImageLoaderMachO16doInitializationERKN11ImageLoader11LinkContextE
   fun:_ZN11ImageLoader23recursiveInitializationERKNS_11LinkContextEjRNS_21InitializerTimingListERNS_15UninitedUpwardsE
   fun:_ZN11ImageLoader23recursiveInitializationERKNS_11LinkContextEjRNS_21InitializerTimingListERNS_15UninitedUpwardsE
   fun:_ZN11ImageLoader23recursiveInitializationERKNS_11LinkContextEjRNS_21InitializerTimingListERNS_15UninitedUpwardsE
   fun:_ZN11ImageLoader23recursiveInitializationERKNS_11LinkContextEjRNS_21InitializerTimingListERNS_15UninitedUpwardsE
   fun:_ZN11ImageLoader19processInitializersERKNS_11LinkContextEjRNS_21InitializerTimingListERNS_15UninitedUpwardsE
   fun:_ZN11ImageLoader15runInitializersERKNS_11LinkContextERNS_21InitializerTimingListE
   fun:_ZN4dyld24initializeMainExecutableEv
}
{
   <insert_a_suppression_name_here>
   Memcheck:Leak
   match-leak-kinds: definite
   fun:malloc_zone_malloc
   fun:_CFRuntimeCreateInstance
   fun:CFBasicHashCreate
   fun:__CFSetCreateGeneric
   fun:CFSetCreate
   fun:_GLOBAL__sub_I_SerializableArchive.cpp
   fun:_ZN16ImageLoaderMachO18doModInitFunctionsERKN11ImageLoader11LinkContextE
   fun:_ZN16ImageLoaderMachO16doInitializationERKN11ImageLoader11LinkContextE
   fun:_ZN11ImageLoader23recursiveInitializationERKNS_11LinkContextEjRNS_21InitializerTimingListERNS_15UninitedUpwardsE
   fun:_ZN11ImageLoader23recursiveInitializationERKNS_11LinkContextEjRNS_21InitializerTimingListERNS_15UninitedUpwardsE
   fun:_ZN11ImageLoader23recursiveInitializationERKNS_11LinkContextEjRNS_21InitializerTimingListERNS_15UninitedUpwardsE
   fun:_ZN11ImageLoader23recursiveInitializationERKNS_11LinkContextEjRNS_21InitializerTimingListERNS_15UninitedUpwardsE
}
{
   <insert_a_suppression_name_here>
   Memcheck:Leak
   match-leak-kinds: definite
   fun:malloc_zone_malloc
   fun:_CFRuntimeCreateInstance
   fun:CFBasicHashCreate
   fun:__CFSetCreateGeneric
   fun:CFSetCreate
   fun:_GLOBAL__sub_I_HTTPConnectionCacheKey.cpp
   fun:_ZN16ImageLoaderMachO18doModInitFunctionsERKN11ImageLoader11LinkContextE
   fun:_ZN16ImageLoaderMachO16doInitializationERKN11ImageLoader11LinkContextE
   fun:_ZN11ImageLoader23recursiveInitializationERKNS_11LinkContextEjRNS_21InitializerTimingListERNS_15UninitedUpwardsE
   fun:_ZN11ImageLoader23recursiveInitializationERKNS_11LinkContextEjRNS_21InitializerTimingListERNS_15UninitedUpwardsE
   fun:_ZN11ImageLoader23recursiveInitializationERKNS_11LinkContextEjRNS_21InitializerTimingListERNS_15UninitedUpwardsE
   fun:_ZN11ImageLoader23recursiveInitializationERKNS_11LinkContextEjRNS_21InitializerTimingListERNS_15UninitedUpwardsE
}
{
   <insert_a_suppression_name_here>
   Memcheck:Leak
   match-leak-kinds: indirect
   fun:malloc_zone_malloc
   fun:__CFBasicHashRehash
   fun:CFSetCreate
   fun:_GLOBAL__sub_I_CFHTTPConnection.c
   fun:_ZN16ImageLoaderMachO18doModInitFunctionsERKN11ImageLoader11LinkContextE
   fun:_ZN16ImageLoaderMachO16doInitializationERKN11ImageLoader11LinkContextE
   fun:_ZN11ImageLoader23recursiveInitializationERKNS_11LinkContextEjRNS_21InitializerTimingListERNS_15UninitedUpwardsE
   fun:_ZN11ImageLoader23recursiveInitializationERKNS_11LinkContextEjRNS_21InitializerTimingListERNS_15UninitedUpwardsE
   fun:_ZN11ImageLoader23recursiveInitializationERKNS_11LinkContextEjRNS_21InitializerTimingListERNS_15UninitedUpwardsE
   fun:_ZN11ImageLoader23recursiveInitializationERKNS_11LinkContextEjRNS_21InitializerTimingListERNS_15UninitedUpwardsE
   fun:_ZN11ImageLoader23recursiveInitializationERKNS_11LinkContextEjRNS_21InitializerTimingListERNS_15UninitedUpwardsE
   fun:_ZN11ImageLoader23recursiveInitializationERKNS_11LinkContextEjRNS_21InitializerTimingListERNS_15UninitedUpwardsE
}
{
   <insert_a_suppression_name_here>
   Memcheck:Leak
   match-leak-kinds: indirect
   fun:malloc_zone_malloc
   fun:__CFBasicHashRehash
   fun:CFSetCreate
   fun:_GLOBAL__sub_I_IOGlue.cpp
   fun:_ZN16ImageLoaderMachO18doModInitFunctionsERKN11ImageLoader11LinkContextE
   fun:_ZN16ImageLoaderMachO16doInitializationERKN11ImageLoader11LinkContextE
   fun:_ZN11ImageLoader23recursiveInitializationERKNS_11LinkContextEjRNS_21InitializerTimingListERNS_15UninitedUpwardsE
   fun:_ZN11ImageLoader23recursiveInitializationERKNS_11LinkContextEjRNS_21InitializerTimingListERNS_15UninitedUpwardsE
   fun:_ZN11ImageLoader23recursiveInitializationERKNS_11LinkContextEjRNS_21InitializerTimingListERNS_15UninitedUpwardsE
   fun:_ZN11ImageLoader23recursiveInitializationERKNS_11LinkContextEjRNS_21InitializerTimingListERNS_15UninitedUpwardsE
   fun:_ZN11ImageLoader23recursiveInitializationERKNS_11LinkContextEjRNS_21InitializerTimingListERNS_15UninitedUpwardsE
   fun:_ZN11ImageLoader23recursiveInitializationERKNS_11LinkContextEjRNS_21InitializerTimingListERNS_15UninitedUpwardsE
}
{
   <insert_a_suppression_name_here>
   Memcheck:Leak
   match-leak-kinds: reachable
   fun:calloc
   fun:_class_getNonMetaClass
   fun:lookUpImpOrForward
   fun:objc_msgSendSuper_stret
   fun:class_createInstance
   fun:_ZL16attachCategoriesP10objc_classP26locstamped_category_list_tb
   fun:_NSInitializePlatform
   fun:cache_fill
   fun:NXMapRemove
   fun:_ZN4dyldL12notifySingleE17dyld_image_statesPK11ImageLoader
   fun:_ZN11ImageLoader23recursiveInitializationERKNS_11LinkContextEjRNS_21InitializerTimingListERNS_15UninitedUpwardsE
   fun:_ZN11ImageLoader23recursiveInitializationERKNS_11LinkContextEjRNS_21InitializerTimingListERNS_15UninitedUpwardsE
}
{
   <insert_a_suppression_name_here>
   Memcheck:Leak
   match-leak-kinds: reachable
   fun:calloc
   fun:_class_getNonMetaClass
   fun:lookUpImpOrForward
   fun:objc_msgSendSuper_stret
   fun:class_createInstance
   fun:_ZL16attachCategoriesP10objc_classP26locstamped_category_list_tb
   fun:-[__NSPlaceholderDictionary initWithCapacity:]
   fun:-[NSThread init]
   fun:____NSThreads_block_invoke
   fun:_dispatch_client_callout
   fun:dispatch_once_f
   fun:_NSThreadGet0
}
{
   <insert_a_suppression_name_here>
   Memcheck:Leak
   match-leak-kinds: indirect
   fun:malloc_zone_malloc
   fun:__CFBasicHashRehash
   fun:CFSetCreate
   fun:_GLOBAL__sub_I_HTTPEngine.cpp
   fun:_ZN16ImageLoaderMachO18doModInitFunctionsERKN11ImageLoader11LinkContextE
   fun:_ZN16ImageLoaderMachO16doInitializationERKN11ImageLoader11LinkContextE
   fun:_ZN11ImageLoader23recursiveInitializationERKNS_11LinkContextEjRNS_21InitializerTimingListERNS_15UninitedUpwardsE
   fun:_ZN11ImageLoader23recursiveInitializationERKNS_11LinkContextEjRNS_21InitializerTimingListERNS_15UninitedUpwardsE
   fun:_ZN11ImageLoader23recursiveInitializationERKNS_11LinkContextEjRNS_21InitializerTimingListERNS_15UninitedUpwardsE
   fun:_ZN11ImageLoader23recursiveInitializationERKNS_11LinkContextEjRNS_21InitializerTimingListERNS_15UninitedUpwardsE
   fun:_ZN11ImageLoader23recursiveInitializationERKNS_11LinkContextEjRNS_21InitializerTimingListERNS_15UninitedUpwardsE
   fun:_ZN11ImageLoader23recursiveInitializationERKNS_11LinkContextEjRNS_21InitializerTimingListERNS_15UninitedUpwardsE
}
{
   <insert_a_suppression_name_here>
   Memcheck:Leak
   match-leak-kinds: definite
   fun:malloc_zone_malloc
   fun:_CFRuntimeCreateInstance
   fun:CFBasicHashCreate
   fun:__CFSetCreateGeneric
   fun:CFSetCreate
   fun:_GLOBAL__sub_I_FileProtocol.cpp
   fun:_ZN16ImageLoaderMachO18doModInitFunctionsERKN11ImageLoader11LinkContextE
   fun:_ZN16ImageLoaderMachO16doInitializationERKN11ImageLoader11LinkContextE
   fun:_ZN11ImageLoader23recursiveInitializationERKNS_11LinkContextEjRNS_21InitializerTimingListERNS_15UninitedUpwardsE
   fun:_ZN11ImageLoader23recursiveInitializationERKNS_11LinkContextEjRNS_21InitializerTimingListERNS_15UninitedUpwardsE
   fun:_ZN11ImageLoader23recursiveInitializationERKNS_11LinkContextEjRNS_21InitializerTimingListERNS_15UninitedUpwardsE
   fun:_ZN11ImageLoader23recursiveInitializationERKNS_11LinkContextEjRNS_21InitializerTimingListERNS_15UninitedUpwardsE
}
{
   <insert_a_suppression_name_here>
   Memcheck:Leak
   match-leak-kinds: reachable
   fun:malloc
   fun:atexit_register
   fun:__cxa_atexit
   fun:_GLOBAL__sub_I_opencl_kernels_imgproc.cpp
   fun:_ZN16ImageLoaderMachO18doModInitFunctionsERKN11ImageLoader11LinkContextE
   fun:_ZN16ImageLoaderMachO16doInitializationERKN11ImageLoader11LinkContextE
   fun:_ZN11ImageLoader23recursiveInitializationERKNS_11LinkContextEjRNS_21InitializerTimingListERNS_15UninitedUpwardsE
   fun:_ZN11ImageLoader23recursiveInitializationERKNS_11LinkContextEjRNS_21InitializerTimingListERNS_15UninitedUpwardsE
   fun:_ZN11ImageLoader23recursiveInitializationERKNS_11LinkContextEjRNS_21InitializerTimingListERNS_15UninitedUpwardsE
   fun:_ZN11ImageLoader23recursiveInitializationERKNS_11LinkContextEjRNS_21InitializerTimingListERNS_15UninitedUpwardsE
   fun:_ZN11ImageLoader23recursiveInitializationERKNS_11LinkContextEjRNS_21InitializerTimingListERNS_15UninitedUpwardsE
   fun:_ZN11ImageLoader19processInitializersERKNS_11LinkContextEjRNS_21InitializerTimingListERNS_15UninitedUpwardsE
}
{
   <insert_a_suppression_name_here>
   Memcheck:Leak
   match-leak-kinds: definite
   fun:malloc_zone_malloc
   fun:_CFRuntimeCreateInstance
   fun:CFBasicHashCreate
   fun:__CFSetCreateGeneric
   fun:CFSetCreate
   fun:_GLOBAL__sub_I_HTTPConnection.cpp
   fun:_ZN16ImageLoaderMachO18doModInitFunctionsERKN11ImageLoader11LinkContextE
   fun:_ZN16ImageLoaderMachO16doInitializationERKN11ImageLoader11LinkContextE
   fun:_ZN11ImageLoader23recursiveInitializationERKNS_11LinkContextEjRNS_21InitializerTimingListERNS_15UninitedUpwardsE
   fun:_ZN11ImageLoader23recursiveInitializationERKNS_11LinkContextEjRNS_21InitializerTimingListERNS_15UninitedUpwardsE
   fun:_ZN11ImageLoader23recursiveInitializationERKNS_11LinkContextEjRNS_21InitializerTimingListERNS_15UninitedUpwardsE
   fun:_ZN11ImageLoader23recursiveInitializationERKNS_11LinkContextEjRNS_21InitializerTimingListERNS_15UninitedUpwardsE
}
{
   <insert_a_suppression_name_here>
   Memcheck:Leak
   match-leak-kinds: possible
   fun:malloc_zone_calloc
   fun:_Z14getDataSectionIP8classrefEPT_PK14mach_header_64PKcPmS9_
   fun:_ZL12realizeClassP10objc_class
   fun:_ZL11_mapStrHashP11_NXMapTablePKv
   fun:objc_release
   fun:___NSSetupDispatchDataBridge_block_invoke
   fun:_dispatch_client_callout
   fun:dispatch_once_f
   fun:cache_fill
   fun:NXMapRemove
   fun:_ZN4dyldL12notifySingleE17dyld_image_statesPK11ImageLoader
   fun:_ZN11ImageLoader23recursiveInitializationERKNS_11LinkContextEjRNS_21InitializerTimingListERNS_15UninitedUpwardsE
}
{
   <insert_a_suppression_name_here>
   Memcheck:Leak
   match-leak-kinds: indirect
   fun:malloc_zone_malloc
   fun:__CFBasicHashRehash
   fun:CFSetCreate
   fun:_GLOBAL__sub_I_HTTPTransaction.cpp
   fun:_ZN16ImageLoaderMachO18doModInitFunctionsERKN11ImageLoader11LinkContextE
   fun:_ZN16ImageLoaderMachO16doInitializationERKN11ImageLoader11LinkContextE
   fun:_ZN11ImageLoader23recursiveInitializationERKNS_11LinkContextEjRNS_21InitializerTimingListERNS_15UninitedUpwardsE
   fun:_ZN11ImageLoader23recursiveInitializationERKNS_11LinkContextEjRNS_21InitializerTimingListERNS_15UninitedUpwardsE
   fun:_ZN11ImageLoader23recursiveInitializationERKNS_11LinkContextEjRNS_21InitializerTimingListERNS_15UninitedUpwardsE
   fun:_ZN11ImageLoader23recursiveInitializationERKNS_11LinkContextEjRNS_21InitializerTimingListERNS_15UninitedUpwardsE
   fun:_ZN11ImageLoader23recursiveInitializationERKNS_11LinkContextEjRNS_21InitializerTimingListERNS_15UninitedUpwardsE
   fun:_ZN11ImageLoader23recursiveInitializationERKNS_11LinkContextEjRNS_21InitializerTimingListERNS_15UninitedUpwardsE
}
{
   <insert_a_suppression_name_here>
   Memcheck:Leak
   match-leak-kinds: indirect
   fun:malloc_zone_malloc
   fun:__CFBasicHashRehash
   fun:CFSetCreate
   fun:_GLOBAL__sub_I_SHTTP2Callbacks.cpp
   fun:_ZN16ImageLoaderMachO18doModInitFunctionsERKN11ImageLoader11LinkContextE
   fun:_ZN16ImageLoaderMachO16doInitializationERKN11ImageLoader11LinkContextE
   fun:_ZN11ImageLoader23recursiveInitializationERKNS_11LinkContextEjRNS_21InitializerTimingListERNS_15UninitedUpwardsE
   fun:_ZN11ImageLoader23recursiveInitializationERKNS_11LinkContextEjRNS_21InitializerTimingListERNS_15UninitedUpwardsE
   fun:_ZN11ImageLoader23recursiveInitializationERKNS_11LinkContextEjRNS_21InitializerTimingListERNS_15UninitedUpwardsE
   fun:_ZN11ImageLoader23recursiveInitializationERKNS_11LinkContextEjRNS_21InitializerTimingListERNS_15UninitedUpwardsE
   fun:_ZN11ImageLoader23recursiveInitializationERKNS_11LinkContextEjRNS_21InitializerTimingListERNS_15UninitedUpwardsE
   fun:_ZN11ImageLoader23recursiveInitializationERKNS_11LinkContextEjRNS_21InitializerTimingListERNS_15UninitedUpwardsE
}
{
   <insert_a_suppression_name_here>
   Memcheck:Leak
   match-leak-kinds: indirect
   fun:malloc_zone_malloc
   fun:__CFBasicHashRehash
   fun:CFSetCreate
   fun:_GLOBAL__sub_I_CFURLCredentialStorage.c
   fun:_ZN16ImageLoaderMachO18doModInitFunctionsERKN11ImageLoader11LinkContextE
   fun:_ZN16ImageLoaderMachO16doInitializationERKN11ImageLoader11LinkContextE
   fun:_ZN11ImageLoader23recursiveInitializationERKNS_11LinkContextEjRNS_21InitializerTimingListERNS_15UninitedUpwardsE
   fun:_ZN11ImageLoader23recursiveInitializationERKNS_11LinkContextEjRNS_21InitializerTimingListERNS_15UninitedUpwardsE
   fun:_ZN11ImageLoader23recursiveInitializationERKNS_11LinkContextEjRNS_21InitializerTimingListERNS_15UninitedUpwardsE
   fun:_ZN11ImageLoader23recursiveInitializationERKNS_11LinkContextEjRNS_21InitializerTimingListERNS_15UninitedUpwardsE
   fun:_ZN11ImageLoader23recursiveInitializationERKNS_11LinkContextEjRNS_21InitializerTimingListERNS_15UninitedUpwardsE
   fun:_ZN11ImageLoader23recursiveInitializationERKNS_11LinkContextEjRNS_21InitializerTimingListERNS_15UninitedUpwardsE
}
{
   <insert_a_suppression_name_here>
   Memcheck:Leak
   match-leak-kinds: reachable
   fun:calloc
   fun:_ZL12_NXMapMemberP11_NXMapTablePKvPPv
   fun:objc_release
   fun:+[NSString initialize]
   fun:objc_msgSend_fpret
   fun:objc_msgSendSuper
   fun:_Z28_getObjc2NonlazyCategoryListPK14mach_header_64Pm
   fun:_ZL16attachCategoriesP10objc_classP26locstamped_category_list_tb
   fun:+[NSMutableString initialize]
   fun:objc_msgSend_fpret
   fun:_Z28_getObjc2NonlazyCategoryListPK14mach_header_64Pm
   fun:_ZL16attachCategoriesP10objc_classP26locstamped_category_list_tb
}
{
   <insert_a_suppression_name_here>
   Memcheck:Leak
   match-leak-kinds: definite
   fun:malloc_zone_malloc
   fun:_CFRuntimeCreateInstance
   fun:CFBasicHashCreate
   fun:__CFDictionaryCreateGeneric
   fun:CFDictionaryCreateMutable
   fun:_CFBundleCreate
   fun:_CFBundleGetMainBundleAlreadyLocked
   fun:CFBundleGetMainBundle
   fun:___bundleInfo_block_invoke
   fun:_dispatch_client_callout
   fun:dispatch_once_f
   fun:_CFAppVersionCheckLessThan
}
{
   <insert_a_suppression_name_here>
   Memcheck:Leak
   match-leak-kinds: indirect
   fun:malloc_zone_malloc
   fun:__CFBasicHashRehash
   fun:CFSetCreate
   fun:_GLOBAL__sub_I_LocalSessionTask.mm
   fun:_ZN16ImageLoaderMachO18doModInitFunctionsERKN11ImageLoader11LinkContextE
   fun:_ZN16ImageLoaderMachO16doInitializationERKN11ImageLoader11LinkContextE
   fun:_ZN11ImageLoader23recursiveInitializationERKNS_11LinkContextEjRNS_21InitializerTimingListERNS_15UninitedUpwardsE
   fun:_ZN11ImageLoader23recursiveInitializationERKNS_11LinkContextEjRNS_21InitializerTimingListERNS_15UninitedUpwardsE
   fun:_ZN11ImageLoader23recursiveInitializationERKNS_11LinkContextEjRNS_21InitializerTimingListERNS_15UninitedUpwardsE
   fun:_ZN11ImageLoader23recursiveInitializationERKNS_11LinkContextEjRNS_21InitializerTimingListERNS_15UninitedUpwardsE
   fun:_ZN11ImageLoader23recursiveInitializationERKNS_11LinkContextEjRNS_21InitializerTimingListERNS_15UninitedUpwardsE
   fun:_ZN11ImageLoader23recursiveInitializationERKNS_11LinkContextEjRNS_21InitializerTimingListERNS_15UninitedUpwardsE
}
{
   <insert_a_suppression_name_here>
   Memcheck:Leak
   match-leak-kinds: definite
   fun:malloc_zone_malloc
   fun:_CFRuntimeCreateInstance
   fun:CFBasicHashCreate
   fun:__CFSetCreateGeneric
   fun:CFSetCreate
   fun:_GLOBAL__sub_I_SPDYConnectionCache.cpp
   fun:_ZN16ImageLoaderMachO18doModInitFunctionsERKN11ImageLoader11LinkContextE
   fun:_ZN16ImageLoaderMachO16doInitializationERKN11ImageLoader11LinkContextE
   fun:_ZN11ImageLoader23recursiveInitializationERKNS_11LinkContextEjRNS_21InitializerTimingListERNS_15UninitedUpwardsE
   fun:_ZN11ImageLoader23recursiveInitializationERKNS_11LinkContextEjRNS_21InitializerTimingListERNS_15UninitedUpwardsE
   fun:_ZN11ImageLoader23recursiveInitializationERKNS_11LinkContextEjRNS_21InitializerTimingListERNS_15UninitedUpwardsE
   fun:_ZN11ImageLoader23recursiveInitializationERKNS_11LinkContextEjRNS_21InitializerTimingListERNS_15UninitedUpwardsE
}
{
   <insert_a_suppression_name_here>
   Memcheck:Leak
   match-leak-kinds: possible
   fun:malloc
   fun:_ZL12realizeClassP10objc_class
   fun:_ZL12realizeClassP10objc_class
   fun:_ZL12realizeClassP10objc_class
   fun:_ZL11_mapStrHashP11_NXMapTablePKv
   fun:_ZL11_mapStrHashP11_NXMapTablePKv
   fun:objc_release
   fun:_object_remove_assocations
   fun:__CFInitialize
   fun:_ZN16ImageLoaderMachO11doImageInitERKN11ImageLoader11LinkContextE
   fun:_ZN16ImageLoaderMachO16doInitializationERKN11ImageLoader11LinkContextE
   fun:_ZN11ImageLoader23recursiveInitializationERKNS_11LinkContextEjRNS_21InitializerTimingListERNS_15UninitedUpwardsE
}
{
   <insert_a_suppression_name_here>
   Memcheck:Leak
   match-leak-kinds: indirect
   fun:malloc_zone_malloc
   fun:__CFBasicHashRehash
   fun:CFSetCreate
   fun:_GLOBAL__sub_I_SerializableArchive.cpp
   fun:_ZN16ImageLoaderMachO18doModInitFunctionsERKN11ImageLoader11LinkContextE
   fun:_ZN16ImageLoaderMachO16doInitializationERKN11ImageLoader11LinkContextE
   fun:_ZN11ImageLoader23recursiveInitializationERKNS_11LinkContextEjRNS_21InitializerTimingListERNS_15UninitedUpwardsE
   fun:_ZN11ImageLoader23recursiveInitializationERKNS_11LinkContextEjRNS_21InitializerTimingListERNS_15UninitedUpwardsE
   fun:_ZN11ImageLoader23recursiveInitializationERKNS_11LinkContextEjRNS_21InitializerTimingListERNS_15UninitedUpwardsE
   fun:_ZN11ImageLoader23recursiveInitializationERKNS_11LinkContextEjRNS_21InitializerTimingListERNS_15UninitedUpwardsE
   fun:_ZN11ImageLoader23recursiveInitializationERKNS_11LinkContextEjRNS_21InitializerTimingListERNS_15UninitedUpwardsE
   fun:_ZN11ImageLoader23recursiveInitializationERKNS_11LinkContextEjRNS_21InitializerTimingListERNS_15UninitedUpwardsE
}
{
   <insert_a_suppression_name_here>
   Memcheck:Leak
   match-leak-kinds: definite
   fun:malloc_zone_malloc
   fun:_CFRuntimeCreateInstance
   fun:CFBasicHashCreate
   fun:__CFSetCreateGeneric
   fun:CFSetCreate
   fun:_GLOBAL__sub_I_URLProtectionSpace.cpp
   fun:_ZN16ImageLoaderMachO18doModInitFunctionsERKN11ImageLoader11LinkContextE
   fun:_ZN16ImageLoaderMachO16doInitializationERKN11ImageLoader11LinkContextE
   fun:_ZN11ImageLoader23recursiveInitializationERKNS_11LinkContextEjRNS_21InitializerTimingListERNS_15UninitedUpwardsE
   fun:_ZN11ImageLoader23recursiveInitializationERKNS_11LinkContextEjRNS_21InitializerTimingListERNS_15UninitedUpwardsE
   fun:_ZN11ImageLoader23recursiveInitializationERKNS_11LinkContextEjRNS_21InitializerTimingListERNS_15UninitedUpwardsE
   fun:_ZN11ImageLoader23recursiveInitializationERKNS_11LinkContextEjRNS_21InitializerTimingListERNS_15UninitedUpwardsE
}
{
   <insert_a_suppression_name_here>
   Memcheck:Leak
   match-leak-kinds: definite
   fun:malloc_zone_malloc
   fun:CFUniCharGetMappingData
   fun:__CFUniCharLoadDecompositionTable
   fun:CFUniCharDecompose
   fun:CFStringGetFileSystemRepresentation
   fun:_CFURLCreateWithFileSystemPath
   fun:_CFBundleCopyBundleURLForExecutableURL
   fun:_CFBundleGetMainBundleAlreadyLocked
   fun:CFBundleGetMainBundle
   fun:___bundleInfo_block_invoke
   fun:_dispatch_client_callout
   fun:dispatch_once_f
}
{
   <insert_a_suppression_name_here>
   Memcheck:Leak
   match-leak-kinds: reachable
   fun:calloc
   fun:_class_getNonMetaClass
   fun:lookUpImpOrForward
   fun:objc_msgSendSuper_stret
   fun:class_createInstance
   fun:_ZL16attachCategoriesP10objc_classP26locstamped_category_list_tb
   fun:+[__NSDictionary0 _alloc]
   fun:__CFInitialize
   fun:_ZN16ImageLoaderMachO11doImageInitERKN11ImageLoader11LinkContextE
   fun:_ZN16ImageLoaderMachO16doInitializationERKN11ImageLoader11LinkContextE
   fun:_ZN11ImageLoader23recursiveInitializationERKNS_11LinkContextEjRNS_21InitializerTimingListERNS_15UninitedUpwardsE
   fun:_ZN11ImageLoader23recursiveInitializationERKNS_11LinkContextEjRNS_21InitializerTimingListERNS_15UninitedUpwardsE
}
{
   <insert_a_suppression_name_here>
   Memcheck:Leak
   match-leak-kinds: reachable
   fun:calloc
   fun:NXMapRemove
   fun:_ZN12_GLOBAL__N_119AutoreleasePoolPage17autoreleaseNoPageEP11objc_object
   fun:+[NSDictionary allocWithZone:]
   fun:+[__NSDictionary0 _alloc]
   fun:__CFInitialize
   fun:_ZN16ImageLoaderMachO11doImageInitERKN11ImageLoader11LinkContextE
   fun:_ZN16ImageLoaderMachO16doInitializationERKN11ImageLoader11LinkContextE
   fun:_ZN11ImageLoader23recursiveInitializationERKNS_11LinkContextEjRNS_21InitializerTimingListERNS_15UninitedUpwardsE
   fun:_ZN11ImageLoader23recursiveInitializationERKNS_11LinkContextEjRNS_21InitializerTimingListERNS_15UninitedUpwardsE
   fun:_ZN11ImageLoader23recursiveInitializationERKNS_11LinkContextEjRNS_21InitializerTimingListERNS_15UninitedUpwardsE
   fun:_ZN11ImageLoader23recursiveInitializationERKNS_11LinkContextEjRNS_21InitializerTimingListERNS_15UninitedUpwardsE
}
{
   <insert_a_suppression_name_here>
   Memcheck:Leak
   match-leak-kinds: reachable
   fun:calloc
   fun:call_load_methods
   fun:add_class_to_loadable_list
   fun:__CFMakeNSBlockClasses
   fun:__CFInitialize
   fun:_ZN16ImageLoaderMachO11doImageInitERKN11ImageLoader11LinkContextE
   fun:_ZN16ImageLoaderMachO16doInitializationERKN11ImageLoader11LinkContextE
   fun:_ZN11ImageLoader23recursiveInitializationERKNS_11LinkContextEjRNS_21InitializerTimingListERNS_15UninitedUpwardsE
   fun:_ZN11ImageLoader23recursiveInitializationERKNS_11LinkContextEjRNS_21InitializerTimingListERNS_15UninitedUpwardsE
   fun:_ZN11ImageLoader23recursiveInitializationERKNS_11LinkContextEjRNS_21InitializerTimingListERNS_15UninitedUpwardsE
   fun:_ZN11ImageLoader23recursiveInitializationERKNS_11LinkContextEjRNS_21InitializerTimingListERNS_15UninitedUpwardsE
   fun:_ZN11ImageLoader23recursiveInitializationERKNS_11LinkContextEjRNS_21InitializerTimingListERNS_15UninitedUpwardsE
}
{
   <insert_a_suppression_name_here>
   Memcheck:Leak
   match-leak-kinds: possible
   fun:malloc
   fun:_ZL12realizeClassP10objc_class
   fun:_ZL11addSubclassP10objc_classS0_
   fun:_ZL12realizeClassP10objc_class
   fun:objc_release
   fun:_object_remove_assocations
   fun:__CFInitialize
   fun:_ZN16ImageLoaderMachO11doImageInitERKN11ImageLoader11LinkContextE
   fun:_ZN16ImageLoaderMachO16doInitializationERKN11ImageLoader11LinkContextE
   fun:_ZN11ImageLoader23recursiveInitializationERKNS_11LinkContextEjRNS_21InitializerTimingListERNS_15UninitedUpwardsE
   fun:_ZN11ImageLoader23recursiveInitializationERKNS_11LinkContextEjRNS_21InitializerTimingListERNS_15UninitedUpwardsE
   fun:_ZN11ImageLoader23recursiveInitializationERKNS_11LinkContextEjRNS_21InitializerTimingListERNS_15UninitedUpwardsE
}
{
   <insert_a_suppression_name_here>
   Memcheck:Leak
   match-leak-kinds: possible
   fun:malloc
   fun:_ZL12realizeClassP10objc_class
   fun:_ZL11addSubclassP10objc_classS0_
   fun:_ZL12realizeClassP10objc_class
   fun:_ZL11_mapStrHashP11_NXMapTablePKv
   fun:_ZL11_mapStrHashP11_NXMapTablePKv
   fun:objc_release
   fun:_NSToDoAtProcessStart
   fun:_NSInitializePlatform
   fun:cache_fill
   fun:NXMapRemove
   fun:_ZN4dyldL12notifySingleE17dyld_image_statesPK11ImageLoader
}
{
   <insert_a_suppression_name_here>
   Memcheck:Leak
   match-leak-kinds: indirect
   fun:malloc_zone_malloc
   fun:__CFBasicHashRehash
   fun:CFSetCreate
   fun:_GLOBAL__sub_I_ClassicURLConnection.cpp
   fun:_ZN16ImageLoaderMachO18doModInitFunctionsERKN11ImageLoader11LinkContextE
   fun:_ZN16ImageLoaderMachO16doInitializationERKN11ImageLoader11LinkContextE
   fun:_ZN11ImageLoader23recursiveInitializationERKNS_11LinkContextEjRNS_21InitializerTimingListERNS_15UninitedUpwardsE
   fun:_ZN11ImageLoader23recursiveInitializationERKNS_11LinkContextEjRNS_21InitializerTimingListERNS_15UninitedUpwardsE
   fun:_ZN11ImageLoader23recursiveInitializationERKNS_11LinkContextEjRNS_21InitializerTimingListERNS_15UninitedUpwardsE
   fun:_ZN11ImageLoader23recursiveInitializationERKNS_11LinkContextEjRNS_21InitializerTimingListERNS_15UninitedUpwardsE
   fun:_ZN11ImageLoader23recursiveInitializationERKNS_11LinkContextEjRNS_21InitializerTimingListERNS_15UninitedUpwardsE
   fun:_ZN11ImageLoader23recursiveInitializationERKNS_11LinkContextEjRNS_21InitializerTimingListERNS_15UninitedUpwardsE
}
{
   <insert_a_suppression_name_here>
   Memcheck:Leak
   match-leak-kinds: definite
   fun:malloc_zone_malloc
   fun:_CFRuntimeCreateInstance
   fun:CFBasicHashCreate
   fun:__CFSetCreateGeneric
   fun:CFSetCreate
   fun:_GLOBAL__sub_I_CFNetwork.c
   fun:_ZN16ImageLoaderMachO18doModInitFunctionsERKN11ImageLoader11LinkContextE
   fun:_ZN16ImageLoaderMachO16doInitializationERKN11ImageLoader11LinkContextE
   fun:_ZN11ImageLoader23recursiveInitializationERKNS_11LinkContextEjRNS_21InitializerTimingListERNS_15UninitedUpwardsE
   fun:_ZN11ImageLoader23recursiveInitializationERKNS_11LinkContextEjRNS_21InitializerTimingListERNS_15UninitedUpwardsE
   fun:_ZN11ImageLoader23recursiveInitializationERKNS_11LinkContextEjRNS_21InitializerTimingListERNS_15UninitedUpwardsE
   fun:_ZN11ImageLoader23recursiveInitializationERKNS_11LinkContextEjRNS_21InitializerTimingListERNS_15UninitedUpwardsE
}
{
   <insert_a_suppression_name_here>
   Memcheck:Leak
   match-leak-kinds: definite
   fun:malloc_zone_malloc
   fun:_CFRuntimeCreateInstance
   fun:CFBasicHashCreate
   fun:__CFSetCreateGeneric
   fun:CFSetCreate
   fun:_GLOBAL__sub_I_SSPDYStream.cpp
   fun:_ZN16ImageLoaderMachO18doModInitFunctionsERKN11ImageLoader11LinkContextE
   fun:_ZN16ImageLoaderMachO16doInitializationERKN11ImageLoader11LinkContextE
   fun:_ZN11ImageLoader23recursiveInitializationERKNS_11LinkContextEjRNS_21InitializerTimingListERNS_15UninitedUpwardsE
   fun:_ZN11ImageLoader23recursiveInitializationERKNS_11LinkContextEjRNS_21InitializerTimingListERNS_15UninitedUpwardsE
   fun:_ZN11ImageLoader23recursiveInitializationERKNS_11LinkContextEjRNS_21InitializerTimingListERNS_15UninitedUpwardsE
   fun:_ZN11ImageLoader23recursiveInitializationERKNS_11LinkContextEjRNS_21InitializerTimingListERNS_15UninitedUpwardsE
}
{
   <insert_a_suppression_name_here>
   Memcheck:Leak
   match-leak-kinds: reachable
   fun:malloc_zone_malloc
   fun:__CFBasicHashRehash
   fun:CFSetCreate
   fun:_GLOBAL__sub_I_HTTP2Callbacks.cpp
   fun:_ZN16ImageLoaderMachO18doModInitFunctionsERKN11ImageLoader11LinkContextE
   fun:_ZN16ImageLoaderMachO16doInitializationERKN11ImageLoader11LinkContextE
   fun:_ZN11ImageLoader23recursiveInitializationERKNS_11LinkContextEjRNS_21InitializerTimingListERNS_15UninitedUpwardsE
   fun:_ZN11ImageLoader23recursiveInitializationERKNS_11LinkContextEjRNS_21InitializerTimingListERNS_15UninitedUpwardsE
   fun:_ZN11ImageLoader23recursiveInitializationERKNS_11LinkContextEjRNS_21InitializerTimingListERNS_15UninitedUpwardsE
   fun:_ZN11ImageLoader23recursiveInitializationERKNS_11LinkContextEjRNS_21InitializerTimingListERNS_15UninitedUpwardsE
   fun:_ZN11ImageLoader23recursiveInitializationERKNS_11LinkContextEjRNS_21InitializerTimingListERNS_15UninitedUpwardsE
   fun:_ZN11ImageLoader23recursiveInitializationERKNS_11LinkContextEjRNS_21InitializerTimingListERNS_15UninitedUpwardsE
}
{
   <insert_a_suppression_name_here>
   Memcheck:Leak
   match-leak-kinds: definite
   fun:malloc_zone_malloc
   fun:_CFRuntimeCreateInstance
   fun:CFBasicHashCreate
   fun:__CFSetCreateGeneric
   fun:CFSetCreate
   fun:_GLOBAL__sub_I_SAwaitingTube.cpp
   fun:_ZN16ImageLoaderMachO18doModInitFunctionsERKN11ImageLoader11LinkContextE
   fun:_ZN16ImageLoaderMachO16doInitializationERKN11ImageLoader11LinkContextE
   fun:_ZN11ImageLoader23recursiveInitializationERKNS_11LinkContextEjRNS_21InitializerTimingListERNS_15UninitedUpwardsE
   fun:_ZN11ImageLoader23recursiveInitializationERKNS_11LinkContextEjRNS_21InitializerTimingListERNS_15UninitedUpwardsE
   fun:_ZN11ImageLoader23recursiveInitializationERKNS_11LinkContextEjRNS_21InitializerTimingListERNS_15UninitedUpwardsE
   fun:_ZN11ImageLoader23recursiveInitializationERKNS_11LinkContextEjRNS_21InitializerTimingListERNS_15UninitedUpwardsE
}
{
   <insert_a_suppression_name_here>
   Memcheck:Leak
   match-leak-kinds: reachable
   fun:calloc
   fun:_ZL12_NXMapMemberP11_NXMapTablePKvPPv
   fun:objc_release
   fun:__CFMakeNSBlockClasses
   fun:__CFInitialize
   fun:_ZN16ImageLoaderMachO11doImageInitERKN11ImageLoader11LinkContextE
   fun:_ZN16ImageLoaderMachO16doInitializationERKN11ImageLoader11LinkContextE
   fun:_ZN11ImageLoader23recursiveInitializationERKNS_11LinkContextEjRNS_21InitializerTimingListERNS_15UninitedUpwardsE
   fun:_ZN11ImageLoader23recursiveInitializationERKNS_11LinkContextEjRNS_21InitializerTimingListERNS_15UninitedUpwardsE
   fun:_ZN11ImageLoader23recursiveInitializationERKNS_11LinkContextEjRNS_21InitializerTimingListERNS_15UninitedUpwardsE
   fun:_ZN11ImageLoader23recursiveInitializationERKNS_11LinkContextEjRNS_21InitializerTimingListERNS_15UninitedUpwardsE
   fun:_ZN11ImageLoader23recursiveInitializationERKNS_11LinkContextEjRNS_21InitializerTimingListERNS_15UninitedUpwardsE
}
{
   <insert_a_suppression_name_here>
   Memcheck:Leak
   match-leak-kinds: indirect
   fun:malloc_zone_malloc
   fun:__CFBasicHashRehash
   fun:CFSetCreate
   fun:_GLOBAL__sub_I_SocketStream.cpp
   fun:_ZN16ImageLoaderMachO18doModInitFunctionsERKN11ImageLoader11LinkContextE
   fun:_ZN16ImageLoaderMachO16doInitializationERKN11ImageLoader11LinkContextE
   fun:_ZN11ImageLoader23recursiveInitializationERKNS_11LinkContextEjRNS_21InitializerTimingListERNS_15UninitedUpwardsE
   fun:_ZN11ImageLoader23recursiveInitializationERKNS_11LinkContextEjRNS_21InitializerTimingListERNS_15UninitedUpwardsE
   fun:_ZN11ImageLoader23recursiveInitializationERKNS_11LinkContextEjRNS_21InitializerTimingListERNS_15UninitedUpwardsE
   fun:_ZN11ImageLoader23recursiveInitializationERKNS_11LinkContextEjRNS_21InitializerTimingListERNS_15UninitedUpwardsE
   fun:_ZN11ImageLoader23recursiveInitializationERKNS_11LinkContextEjRNS_21InitializerTimingListERNS_15UninitedUpwardsE
   fun:_ZN11ImageLoader23recursiveInitializationERKNS_11LinkContextEjRNS_21InitializerTimingListERNS_15UninitedUpwardsE
}
{
   <insert_a_suppression_name_here>
   Memcheck:Leak
   match-leak-kinds: definite
   fun:calloc
   fun:NXMapRemove
   fun:_ZL19schedule_class_loadP10objc_class
   fun:+[NSBinder load]
   fun:_ZL19_finishInitializingP10objc_classS0_
   fun:NXMapRemove
   fun:_ZN4dyldL12notifySingleE17dyld_image_statesPK11ImageLoader
   fun:_ZN11ImageLoader23recursiveInitializationERKNS_11LinkContextEjRNS_21InitializerTimingListERNS_15UninitedUpwardsE
   fun:_ZN11ImageLoader23recursiveInitializationERKNS_11LinkContextEjRNS_21InitializerTimingListERNS_15UninitedUpwardsE
   fun:_ZN11ImageLoader23recursiveInitializationERKNS_11LinkContextEjRNS_21InitializerTimingListERNS_15UninitedUpwardsE
   fun:_ZN11ImageLoader23recursiveInitializationERKNS_11LinkContextEjRNS_21InitializerTimingListERNS_15UninitedUpwardsE
   fun:_ZN11ImageLoader23recursiveInitializationERKNS_11LinkContextEjRNS_21InitializerTimingListERNS_15UninitedUpwardsE
}
{
   <insert_a_suppression_name_here>
   Memcheck:Leak
   match-leak-kinds: definite
   fun:malloc_zone_malloc
   fun:_CFRuntimeCreateInstance
   fun:CFBasicHashCreate
   fun:__CFSetCreateGeneric
   fun:CFSetCreate
   fun:_GLOBAL__sub_I_CFURLSessionConfiguration.mm
   fun:_ZN16ImageLoaderMachO18doModInitFunctionsERKN11ImageLoader11LinkContextE
   fun:_ZN16ImageLoaderMachO16doInitializationERKN11ImageLoader11LinkContextE
   fun:_ZN11ImageLoader23recursiveInitializationERKNS_11LinkContextEjRNS_21InitializerTimingListERNS_15UninitedUpwardsE
   fun:_ZN11ImageLoader23recursiveInitializationERKNS_11LinkContextEjRNS_21InitializerTimingListERNS_15UninitedUpwardsE
   fun:_ZN11ImageLoader23recursiveInitializationERKNS_11LinkContextEjRNS_21InitializerTimingListERNS_15UninitedUpwardsE
   fun:_ZN11ImageLoader23recursiveInitializationERKNS_11LinkContextEjRNS_21InitializerTimingListERNS_15UninitedUpwardsE
}
{
   <insert_a_suppression_name_here>
   Memcheck:Leak
   match-leak-kinds: possible
   fun:malloc
   fun:_ZN10objc_class14setHasCustomRREb
   fun:_ZL11addSubclassP10objc_classS0_
   fun:_ZL12realizeClassP10objc_class
   fun:objc_release
   fun:_object_remove_assocations
   fun:__CFInitialize
   fun:_ZN16ImageLoaderMachO11doImageInitERKN11ImageLoader11LinkContextE
   fun:_ZN16ImageLoaderMachO16doInitializationERKN11ImageLoader11LinkContextE
   fun:_ZN11ImageLoader23recursiveInitializationERKNS_11LinkContextEjRNS_21InitializerTimingListERNS_15UninitedUpwardsE
   fun:_ZN11ImageLoader23recursiveInitializationERKNS_11LinkContextEjRNS_21InitializerTimingListERNS_15UninitedUpwardsE
   fun:_ZN11ImageLoader23recursiveInitializationERKNS_11LinkContextEjRNS_21InitializerTimingListERNS_15UninitedUpwardsE
}
{
   <insert_a_suppression_name_here>
   Memcheck:Leak
   match-leak-kinds: indirect
   fun:malloc_zone_malloc
   fun:__CFBasicHashRehash
   fun:CFSetCreate
   fun:_GLOBAL__sub_I_HTTPNetConnection_NoAuth.cpp
   fun:_ZN16ImageLoaderMachO18doModInitFunctionsERKN11ImageLoader11LinkContextE
   fun:_ZN16ImageLoaderMachO16doInitializationERKN11ImageLoader11LinkContextE
   fun:_ZN11ImageLoader23recursiveInitializationERKNS_11LinkContextEjRNS_21InitializerTimingListERNS_15UninitedUpwardsE
   fun:_ZN11ImageLoader23recursiveInitializationERKNS_11LinkContextEjRNS_21InitializerTimingListERNS_15UninitedUpwardsE
   fun:_ZN11ImageLoader23recursiveInitializationERKNS_11LinkContextEjRNS_21InitializerTimingListERNS_15UninitedUpwardsE
   fun:_ZN11ImageLoader23recursiveInitializationERKNS_11LinkContextEjRNS_21InitializerTimingListERNS_15UninitedUpwardsE
   fun:_ZN11ImageLoader23recursiveInitializationERKNS_11LinkContextEjRNS_21InitializerTimingListERNS_15UninitedUpwardsE
   fun:_ZN11ImageLoader23recursiveInitializationERKNS_11LinkContextEjRNS_21InitializerTimingListERNS_15UninitedUpwardsE
}
{
   <insert_a_suppression_name_here>
   Memcheck:Leak
   match-leak-kinds: reachable
   fun:calloc
   fun:__rehashd
   fun:-[__NSDictionaryM setObject:forKey:]
   fun:+[DDDynamicSource registerDynamicSourceClass:forSourceKind:]
   fun:+[DDGeoSource load]
   fun:_ZL19_finishInitializingP10objc_classS0_
   fun:NXMapRemove
   fun:_ZN4dyldL12notifySingleE17dyld_image_statesPK11ImageLoader
   fun:_ZN11ImageLoader23recursiveInitializationERKNS_11LinkContextEjRNS_21InitializerTimingListERNS_15UninitedUpwardsE
   fun:_ZN11ImageLoader23recursiveInitializationERKNS_11LinkContextEjRNS_21InitializerTimingListERNS_15UninitedUpwardsE
   fun:_ZN11ImageLoader23recursiveInitializationERKNS_11LinkContextEjRNS_21InitializerTimingListERNS_15UninitedUpwardsE
   fun:_ZN11ImageLoader23recursiveInitializationERKNS_11LinkContextEjRNS_21InitializerTimingListERNS_15UninitedUpwardsE
}
{
   <insert_a_suppression_name_here>
   Memcheck:Leak
   match-leak-kinds: reachable
   fun:calloc
   fun:_ZL12_NXMapMemberP11_NXMapTablePKvPPv
   fun:objc_release
   fun:___NSSetupDispatchDataBridge_block_invoke
   fun:_dispatch_client_callout
   fun:dispatch_once_f
   fun:cache_fill
   fun:NXMapRemove
   fun:_ZN4dyldL12notifySingleE17dyld_image_statesPK11ImageLoader
   fun:_ZN11ImageLoader23recursiveInitializationERKNS_11LinkContextEjRNS_21InitializerTimingListERNS_15UninitedUpwardsE
   fun:_ZN11ImageLoader23recursiveInitializationERKNS_11LinkContextEjRNS_21InitializerTimingListERNS_15UninitedUpwardsE
   fun:_ZN11ImageLoader23recursiveInitializationERKNS_11LinkContextEjRNS_21InitializerTimingListERNS_15UninitedUpwardsE
}
{
   <insert_a_suppression_name_here>
   Memcheck:Leak
   match-leak-kinds: definite
   fun:malloc_zone_malloc
   fun:_CFRuntimeCreateInstance
   fun:CFBasicHashCreate
   fun:__CFSetCreateGeneric
   fun:CFSetCreate
   fun:_GLOBAL__sub_I_CFURLConnectionSession.mm
   fun:_ZN16ImageLoaderMachO18doModInitFunctionsERKN11ImageLoader11LinkContextE
   fun:_ZN16ImageLoaderMachO16doInitializationERKN11ImageLoader11LinkContextE
   fun:_ZN11ImageLoader23recursiveInitializationERKNS_11LinkContextEjRNS_21InitializerTimingListERNS_15UninitedUpwardsE
   fun:_ZN11ImageLoader23recursiveInitializationERKNS_11LinkContextEjRNS_21InitializerTimingListERNS_15UninitedUpwardsE
   fun:_ZN11ImageLoader23recursiveInitializationERKNS_11LinkContextEjRNS_21InitializerTimingListERNS_15UninitedUpwardsE
   fun:_ZN11ImageLoader23recursiveInitializationERKNS_11LinkContextEjRNS_21InitializerTimingListERNS_15UninitedUpwardsE
}
{
   <insert_a_suppression_name_here>
   Memcheck:Leak
   match-leak-kinds: definite
   fun:malloc_zone_malloc
   fun:_CFRuntimeCreateInstance
   fun:CFBasicHashCreate
   fun:__CFSetCreateGeneric
   fun:CFSetCreate
   fun:_GLOBAL__sub_I_AuthBrokerClient.cpp
   fun:_ZN16ImageLoaderMachO18doModInitFunctionsERKN11ImageLoader11LinkContextE
   fun:_ZN16ImageLoaderMachO16doInitializationERKN11ImageLoader11LinkContextE
   fun:_ZN11ImageLoader23recursiveInitializationERKNS_11LinkContextEjRNS_21InitializerTimingListERNS_15UninitedUpwardsE
   fun:_ZN11ImageLoader23recursiveInitializationERKNS_11LinkContextEjRNS_21InitializerTimingListERNS_15UninitedUpwardsE
   fun:_ZN11ImageLoader23recursiveInitializationERKNS_11LinkContextEjRNS_21InitializerTimingListERNS_15UninitedUpwardsE
   fun:_ZN11ImageLoader23recursiveInitializationERKNS_11LinkContextEjRNS_21InitializerTimingListERNS_15UninitedUpwardsE
}
{
   <insert_a_suppression_name_here>
   Memcheck:Leak
   match-leak-kinds: definite
   fun:malloc_zone_malloc
   fun:_CFRuntimeCreateInstance
   fun:CFBasicHashCreate
   fun:__CFSetCreateGeneric
   fun:CFSetCreate
   fun:_GLOBAL__sub_I_NetworkProxy.cpp
   fun:_ZN16ImageLoaderMachO18doModInitFunctionsERKN11ImageLoader11LinkContextE
   fun:_ZN16ImageLoaderMachO16doInitializationERKN11ImageLoader11LinkContextE
   fun:_ZN11ImageLoader23recursiveInitializationERKNS_11LinkContextEjRNS_21InitializerTimingListERNS_15UninitedUpwardsE
   fun:_ZN11ImageLoader23recursiveInitializationERKNS_11LinkContextEjRNS_21InitializerTimingListERNS_15UninitedUpwardsE
   fun:_ZN11ImageLoader23recursiveInitializationERKNS_11LinkContextEjRNS_21InitializerTimingListERNS_15UninitedUpwardsE
   fun:_ZN11ImageLoader23recursiveInitializationERKNS_11LinkContextEjRNS_21InitializerTimingListERNS_15UninitedUpwardsE
}
{
   <insert_a_suppression_name_here>
   Memcheck:Leak
   match-leak-kinds: indirect
   fun:malloc_zone_malloc
   fun:__CFBasicHashRehash
   fun:CFSetCreate
   fun:_GLOBAL__sub_I_ActualCredentialStorage.cpp
   fun:_ZN16ImageLoaderMachO18doModInitFunctionsERKN11ImageLoader11LinkContextE
   fun:_ZN16ImageLoaderMachO16doInitializationERKN11ImageLoader11LinkContextE
   fun:_ZN11ImageLoader23recursiveInitializationERKNS_11LinkContextEjRNS_21InitializerTimingListERNS_15UninitedUpwardsE
   fun:_ZN11ImageLoader23recursiveInitializationERKNS_11LinkContextEjRNS_21InitializerTimingListERNS_15UninitedUpwardsE
   fun:_ZN11ImageLoader23recursiveInitializationERKNS_11LinkContextEjRNS_21InitializerTimingListERNS_15UninitedUpwardsE
   fun:_ZN11ImageLoader23recursiveInitializationERKNS_11LinkContextEjRNS_21InitializerTimingListERNS_15UninitedUpwardsE
   fun:_ZN11ImageLoader23recursiveInitializationERKNS_11LinkContextEjRNS_21InitializerTimingListERNS_15UninitedUpwardsE
   fun:_ZN11ImageLoader23recursiveInitializationERKNS_11LinkContextEjRNS_21InitializerTimingListERNS_15UninitedUpwardsE
}
{
   <insert_a_suppression_name_here>
   Memcheck:Leak
   match-leak-kinds: reachable
   fun:calloc
   fun:_ZL12_NXMapMemberP11_NXMapTablePKvPPv
   fun:_ZL11_mapStrHashP11_NXMapTablePKv
   fun:_ZL11_mapStrHashP11_NXMapTablePKv
   fun:objc_release
   fun:_NSToDoAtProcessStart
   fun:_NSInitializePlatform
   fun:cache_fill
   fun:NXMapRemove
   fun:_ZN4dyldL12notifySingleE17dyld_image_statesPK11ImageLoader
   fun:_ZN11ImageLoader23recursiveInitializationERKNS_11LinkContextEjRNS_21InitializerTimingListERNS_15UninitedUpwardsE
   fun:_ZN11ImageLoader23recursiveInitializationERKNS_11LinkContextEjRNS_21InitializerTimingListERNS_15UninitedUpwardsE
}
{
   <insert_a_suppression_name_here>
   Memcheck:Leak
   match-leak-kinds: indirect
   fun:malloc_zone_malloc
   fun:__CFBasicHashRehash
   fun:CFSetCreate
   fun:_GLOBAL__sub_I_SAwaitingTube.cpp
   fun:_ZN16ImageLoaderMachO18doModInitFunctionsERKN11ImageLoader11LinkContextE
   fun:_ZN16ImageLoaderMachO16doInitializationERKN11ImageLoader11LinkContextE
   fun:_ZN11ImageLoader23recursiveInitializationERKNS_11LinkContextEjRNS_21InitializerTimingListERNS_15UninitedUpwardsE
   fun:_ZN11ImageLoader23recursiveInitializationERKNS_11LinkContextEjRNS_21InitializerTimingListERNS_15UninitedUpwardsE
   fun:_ZN11ImageLoader23recursiveInitializationERKNS_11LinkContextEjRNS_21InitializerTimingListERNS_15UninitedUpwardsE
   fun:_ZN11ImageLoader23recursiveInitializationERKNS_11LinkContextEjRNS_21InitializerTimingListERNS_15UninitedUpwardsE
   fun:_ZN11ImageLoader23recursiveInitializationERKNS_11LinkContextEjRNS_21InitializerTimingListERNS_15UninitedUpwardsE
   fun:_ZN11ImageLoader23recursiveInitializationERKNS_11LinkContextEjRNS_21InitializerTimingListERNS_15UninitedUpwardsE
}
{
   <insert_a_suppression_name_here>
   Memcheck:Leak
   match-leak-kinds: indirect
   fun:malloc_zone_malloc
   fun:__CFBasicHashRehash
   fun:CFSetCreate
   fun:_GLOBAL__sub_I_FTPProtocol.cpp
   fun:_ZN16ImageLoaderMachO18doModInitFunctionsERKN11ImageLoader11LinkContextE
   fun:_ZN16ImageLoaderMachO16doInitializationERKN11ImageLoader11LinkContextE
   fun:_ZN11ImageLoader23recursiveInitializationERKNS_11LinkContextEjRNS_21InitializerTimingListERNS_15UninitedUpwardsE
   fun:_ZN11ImageLoader23recursiveInitializationERKNS_11LinkContextEjRNS_21InitializerTimingListERNS_15UninitedUpwardsE
   fun:_ZN11ImageLoader23recursiveInitializationERKNS_11LinkContextEjRNS_21InitializerTimingListERNS_15UninitedUpwardsE
   fun:_ZN11ImageLoader23recursiveInitializationERKNS_11LinkContextEjRNS_21InitializerTimingListERNS_15UninitedUpwardsE
   fun:_ZN11ImageLoader23recursiveInitializationERKNS_11LinkContextEjRNS_21InitializerTimingListERNS_15UninitedUpwardsE
   fun:_ZN11ImageLoader23recursiveInitializationERKNS_11LinkContextEjRNS_21InitializerTimingListERNS_15UninitedUpwardsE
}
{
   <insert_a_suppression_name_here>
   Memcheck:Leak
   match-leak-kinds: definite
   fun:malloc_zone_malloc
   fun:_CFRuntimeCreateInstance
   fun:CFBasicHashCreate
   fun:__CFSetCreateGeneric
   fun:CFSetCreate
   fun:_GLOBAL__sub_I_NetConnection.cpp
   fun:_ZN16ImageLoaderMachO18doModInitFunctionsERKN11ImageLoader11LinkContextE
   fun:_ZN16ImageLoaderMachO16doInitializationERKN11ImageLoader11LinkContextE
   fun:_ZN11ImageLoader23recursiveInitializationERKNS_11LinkContextEjRNS_21InitializerTimingListERNS_15UninitedUpwardsE
   fun:_ZN11ImageLoader23recursiveInitializationERKNS_11LinkContextEjRNS_21InitializerTimingListERNS_15UninitedUpwardsE
   fun:_ZN11ImageLoader23recursiveInitializationERKNS_11LinkContextEjRNS_21InitializerTimingListERNS_15UninitedUpwardsE
   fun:_ZN11ImageLoader23recursiveInitializationERKNS_11LinkContextEjRNS_21InitializerTimingListERNS_15UninitedUpwardsE
}
{
   <insert_a_suppression_name_here>
   Memcheck:Leak
   match-leak-kinds: definite
   fun:malloc_zone_malloc
   fun:_CFRuntimeCreateInstance
   fun:CFBasicHashCreate
   fun:__CFSetCreateGeneric
   fun:CFSetCreate
   fun:_GLOBAL__sub_I_SPDYStream.cpp
   fun:_ZN16ImageLoaderMachO18doModInitFunctionsERKN11ImageLoader11LinkContextE
   fun:_ZN16ImageLoaderMachO16doInitializationERKN11ImageLoader11LinkContextE
   fun:_ZN11ImageLoader23recursiveInitializationERKNS_11LinkContextEjRNS_21InitializerTimingListERNS_15UninitedUpwardsE
   fun:_ZN11ImageLoader23recursiveInitializationERKNS_11LinkContextEjRNS_21InitializerTimingListERNS_15UninitedUpwardsE
   fun:_ZN11ImageLoader23recursiveInitializationERKNS_11LinkContextEjRNS_21InitializerTimingListERNS_15UninitedUpwardsE
   fun:_ZN11ImageLoader23recursiveInitializationERKNS_11LinkContextEjRNS_21InitializerTimingListERNS_15UninitedUpwardsE
}
{
   <insert_a_suppression_name_here>
   Memcheck:Leak
   match-leak-kinds: indirect
   fun:malloc_zone_malloc
   fun:__CFBasicHashRehash
   fun:CFSetCreate
   fun:_GLOBAL__sub_I_CFURLSessionConfiguration.mm
   fun:_ZN16ImageLoaderMachO18doModInitFunctionsERKN11ImageLoader11LinkContextE
   fun:_ZN16ImageLoaderMachO16doInitializationERKN11ImageLoader11LinkContextE
   fun:_ZN11ImageLoader23recursiveInitializationERKNS_11LinkContextEjRNS_21InitializerTimingListERNS_15UninitedUpwardsE
   fun:_ZN11ImageLoader23recursiveInitializationERKNS_11LinkContextEjRNS_21InitializerTimingListERNS_15UninitedUpwardsE
   fun:_ZN11ImageLoader23recursiveInitializationERKNS_11LinkContextEjRNS_21InitializerTimingListERNS_15UninitedUpwardsE
   fun:_ZN11ImageLoader23recursiveInitializationERKNS_11LinkContextEjRNS_21InitializerTimingListERNS_15UninitedUpwardsE
   fun:_ZN11ImageLoader23recursiveInitializationERKNS_11LinkContextEjRNS_21InitializerTimingListERNS_15UninitedUpwardsE
   fun:_ZN11ImageLoader23recursiveInitializationERKNS_11LinkContextEjRNS_21InitializerTimingListERNS_15UninitedUpwardsE
}
{
   <insert_a_suppression_name_here>
   Memcheck:Leak
   match-leak-kinds: reachable
   fun:calloc
   fun:_class_getNonMetaClass
   fun:lookUpImpOrForward
   fun:objc_msgSendSuper_stret
   fun:class_createInstance
   fun:_ZL16attachCategoriesP10objc_classP26locstamped_category_list_tb
   fun:-[__NSDictionaryM setObject:forKey:]
   fun:+[DDDynamicSource registerDynamicSourceClass:forSourceKind:]
   fun:+[DDAddressBookSource load]
   fun:_ZL19_finishInitializingP10objc_classS0_
   fun:NXMapRemove
   fun:_ZN4dyldL12notifySingleE17dyld_image_statesPK11ImageLoader
}
{
   <insert_a_suppression_name_here>
   Memcheck:Leak
   match-leak-kinds: reachable
   fun:calloc
   fun:_ZL12_NXMapMemberP11_NXMapTablePKvPPv
   fun:objc_release
   fun:_object_remove_assocations
   fun:__CFInitialize
   fun:_ZN16ImageLoaderMachO11doImageInitERKN11ImageLoader11LinkContextE
   fun:_ZN16ImageLoaderMachO16doInitializationERKN11ImageLoader11LinkContextE
   fun:_ZN11ImageLoader23recursiveInitializationERKNS_11LinkContextEjRNS_21InitializerTimingListERNS_15UninitedUpwardsE
   fun:_ZN11ImageLoader23recursiveInitializationERKNS_11LinkContextEjRNS_21InitializerTimingListERNS_15UninitedUpwardsE
   fun:_ZN11ImageLoader23recursiveInitializationERKNS_11LinkContextEjRNS_21InitializerTimingListERNS_15UninitedUpwardsE
   fun:_ZN11ImageLoader23recursiveInitializationERKNS_11LinkContextEjRNS_21InitializerTimingListERNS_15UninitedUpwardsE
   fun:_ZN11ImageLoader23recursiveInitializationERKNS_11LinkContextEjRNS_21InitializerTimingListERNS_15UninitedUpwardsE
}
{
   <insert_a_suppression_name_here>
   Memcheck:Leak
   match-leak-kinds: indirect
   fun:calloc
   fun:objc_msgSend_fp2ret_fixedup
   fun:objc_msgSendSuper2
   fun:objc_msgSendSuper
   fun:_ZN11objc_object27sidetable_clearDeallocatingEv
   fun:_CFRuntimeCreateInstance
   fun:CFBasicHashCreate
   fun:__CFInitialize
   fun:_ZN16ImageLoaderMachO11doImageInitERKN11ImageLoader11LinkContextE
   fun:_ZN16ImageLoaderMachO16doInitializationERKN11ImageLoader11LinkContextE
   fun:_ZN11ImageLoader23recursiveInitializationERKNS_11LinkContextEjRNS_21InitializerTimingListERNS_15UninitedUpwardsE
   fun:_ZN11ImageLoader23recursiveInitializationERKNS_11LinkContextEjRNS_21InitializerTimingListERNS_15UninitedUpwardsE
}
{
   <insert_a_suppression_name_here>
   Memcheck:Leak
   match-leak-kinds: reachable
   fun:calloc
   fun:_ZL12_NXMapMemberP11_NXMapTablePKvPPv
   fun:hasLoadMethods
   fun:_ZL16attachCategoriesP10objc_classP26locstamped_category_list_tb
   fun:-[__NSPlaceholderDictionary initWithObjects:forKeys:count:]
   fun:+[NSDictionary dictionaryWithObjects:forKeys:count:]
   fun:__31+[DDGeoSource tableNameMapping]_block_invoke
   fun:_dispatch_client_callout
   fun:dispatch_once_f
   fun:+[DDGeoSource tableNameMapping]
   fun:+[DDGeoSource tableNames]
   fun:+[DDDynamicSource registerDynamicSourceClass:forSourceKind:]
}
{
   <insert_a_suppression_name_here>
   Memcheck:Leak
   match-leak-kinds: indirect
   fun:malloc_zone_malloc
   fun:__CFBasicHashRehash
   fun:CFSetCreate
   fun:_GLOBAL__sub_I_Schedulables.cpp
   fun:_ZN16ImageLoaderMachO18doModInitFunctionsERKN11ImageLoader11LinkContextE
   fun:_ZN16ImageLoaderMachO16doInitializationERKN11ImageLoader11LinkContextE
   fun:_ZN11ImageLoader23recursiveInitializationERKNS_11LinkContextEjRNS_21InitializerTimingListERNS_15UninitedUpwardsE
   fun:_ZN11ImageLoader23recursiveInitializationERKNS_11LinkContextEjRNS_21InitializerTimingListERNS_15UninitedUpwardsE
   fun:_ZN11ImageLoader23recursiveInitializationERKNS_11LinkContextEjRNS_21InitializerTimingListERNS_15UninitedUpwardsE
   fun:_ZN11ImageLoader23recursiveInitializationERKNS_11LinkContextEjRNS_21InitializerTimingListERNS_15UninitedUpwardsE
   fun:_ZN11ImageLoader23recursiveInitializationERKNS_11LinkContextEjRNS_21InitializerTimingListERNS_15UninitedUpwardsE
   fun:_ZN11ImageLoader23recursiveInitializationERKNS_11LinkContextEjRNS_21InitializerTimingListERNS_15UninitedUpwardsE
}
{
   <insert_a_suppression_name_here>
   Memcheck:Leak
   match-leak-kinds: reachable
   fun:calloc
   fun:_ZL12_NXMapMemberP11_NXMapTablePKvPPv
   fun:objc_release
   fun:__26+[NSObject(NSObject) load]_block_invoke
   fun:_dispatch_client_callout
   fun:dispatch_once_f
   fun:+[NSObject(NSObject) load]
   fun:cache_fill
   fun:NXMapRemove
   fun:_ZN4dyldL12notifySingleE17dyld_image_statesPK11ImageLoader
   fun:_ZN11ImageLoader23recursiveInitializationERKNS_11LinkContextEjRNS_21InitializerTimingListERNS_15UninitedUpwardsE
   fun:_ZN11ImageLoader23recursiveInitializationERKNS_11LinkContextEjRNS_21InitializerTimingListERNS_15UninitedUpwardsE
}
{
   <insert_a_suppression_name_here>
   Memcheck:Leak
   match-leak-kinds: indirect
   fun:malloc_zone_malloc
   fun:__CFBasicHashRehash
   fun:CFSetCreate
   fun:_GLOBAL__sub_I_SHTTP2Stream.cpp
   fun:_ZN16ImageLoaderMachO18doModInitFunctionsERKN11ImageLoader11LinkContextE
   fun:_ZN16ImageLoaderMachO16doInitializationERKN11ImageLoader11LinkContextE
   fun:_ZN11ImageLoader23recursiveInitializationERKNS_11LinkContextEjRNS_21InitializerTimingListERNS_15UninitedUpwardsE
   fun:_ZN11ImageLoader23recursiveInitializationERKNS_11LinkContextEjRNS_21InitializerTimingListERNS_15UninitedUpwardsE
   fun:_ZN11ImageLoader23recursiveInitializationERKNS_11LinkContextEjRNS_21InitializerTimingListERNS_15UninitedUpwardsE
   fun:_ZN11ImageLoader23recursiveInitializationERKNS_11LinkContextEjRNS_21InitializerTimingListERNS_15UninitedUpwardsE
   fun:_ZN11ImageLoader23recursiveInitializationERKNS_11LinkContextEjRNS_21InitializerTimingListERNS_15UninitedUpwardsE
   fun:_ZN11ImageLoader23recursiveInitializationERKNS_11LinkContextEjRNS_21InitializerTimingListERNS_15UninitedUpwardsE
}
{
   <insert_a_suppression_name_here>
   Memcheck:Leak
   match-leak-kinds: definite
   fun:calloc
   fun:NXMapRemove
   fun:__CFAllocateObject2
   fun:__39+[__NSPlaceholderDictionary initialize]_block_invoke
   fun:_dispatch_client_callout
   fun:dispatch_once_f
   fun:objc_msgSend_fpret
   fun:_Z28_getObjc2NonlazyCategoryListPK14mach_header_64Pm
   fun:_ZL16attachCategoriesP10objc_classP26locstamped_category_list_tb
   fun:_ZN12_GLOBAL__N_119AutoreleasePoolPage3popEPv
   fun:-[NSThread init]
   fun:____NSThreads_block_invoke
}
{
   <insert_a_suppression_name_here>
   Memcheck:Leak
   match-leak-kinds: indirect
   fun:malloc_zone_malloc
   fun:__CFBasicHashRehash
   fun:CFSetCreate
   fun:_GLOBAL__sub_I_HTTP2ConnectionCache.cpp
   fun:_ZN16ImageLoaderMachO18doModInitFunctionsERKN11ImageLoader11LinkContextE
   fun:_ZN16ImageLoaderMachO16doInitializationERKN11ImageLoader11LinkContextE
   fun:_ZN11ImageLoader23recursiveInitializationERKNS_11LinkContextEjRNS_21InitializerTimingListERNS_15UninitedUpwardsE
   fun:_ZN11ImageLoader23recursiveInitializationERKNS_11LinkContextEjRNS_21InitializerTimingListERNS_15UninitedUpwardsE
   fun:_ZN11ImageLoader23recursiveInitializationERKNS_11LinkContextEjRNS_21InitializerTimingListERNS_15UninitedUpwardsE
   fun:_ZN11ImageLoader23recursiveInitializationERKNS_11LinkContextEjRNS_21InitializerTimingListERNS_15UninitedUpwardsE
   fun:_ZN11ImageLoader23recursiveInitializationERKNS_11LinkContextEjRNS_21InitializerTimingListERNS_15UninitedUpwardsE
   fun:_ZN11ImageLoader23recursiveInitializationERKNS_11LinkContextEjRNS_21InitializerTimingListERNS_15UninitedUpwardsE
}
{
   <insert_a_suppression_name_here>
   Memcheck:Leak
   match-leak-kinds: reachable
   fun:calloc
   fun:_class_getNonMetaClass
   fun:lookUpImpOrForward
   fun:objc_msgSendSuper_stret
   fun:class_createInstance
   fun:_ZL16attachCategoriesP10objc_classP26locstamped_category_list_tb
   fun:-[__NSPlaceholderDictionary initWithObjects:forKeys:count:]
   fun:+[NSDictionary dictionaryWithObjects:forKeys:count:]
   fun:__31+[DDGeoSource tableNameMapping]_block_invoke
   fun:_dispatch_client_callout
   fun:dispatch_once_f
   fun:+[DDGeoSource tableNameMapping]
}
{
   <insert_a_suppression_name_here>
   Memcheck:Leak
   match-leak-kinds: definite
   fun:calloc
   fun:_CFGetTSD
   fun:____CFCharacterSetInitialize_block_invoke
   fun:_dispatch_client_callout
   fun:dispatch_once_f
   fun:__CFInitialize
   fun:_ZN16ImageLoaderMachO11doImageInitERKN11ImageLoader11LinkContextE
   fun:_ZN16ImageLoaderMachO16doInitializationERKN11ImageLoader11LinkContextE
   fun:_ZN11ImageLoader23recursiveInitializationERKNS_11LinkContextEjRNS_21InitializerTimingListERNS_15UninitedUpwardsE
   fun:_ZN11ImageLoader23recursiveInitializationERKNS_11LinkContextEjRNS_21InitializerTimingListERNS_15UninitedUpwardsE
   fun:_ZN11ImageLoader23recursiveInitializationERKNS_11LinkContextEjRNS_21InitializerTimingListERNS_15UninitedUpwardsE
   fun:_ZN11ImageLoader23recursiveInitializationERKNS_11LinkContextEjRNS_21InitializerTimingListERNS_15UninitedUpwardsE
}
{
   <insert_a_suppression_name_here>
   Memcheck:Leak
   match-leak-kinds: reachable
   fun:malloc_zone_malloc
   fun:_CFRuntimeCreateInstance
   fun:CFBasicHashCreate
   fun:__CFSetCreateGeneric
   fun:CFSetCreate
   fun:_GLOBAL__sub_I_ABAuthenticator.cpp
   fun:_ZN16ImageLoaderMachO18doModInitFunctionsERKN11ImageLoader11LinkContextE
   fun:_ZN16ImageLoaderMachO16doInitializationERKN11ImageLoader11LinkContextE
   fun:_ZN11ImageLoader23recursiveInitializationERKNS_11LinkContextEjRNS_21InitializerTimingListERNS_15UninitedUpwardsE
   fun:_ZN11ImageLoader23recursiveInitializationERKNS_11LinkContextEjRNS_21InitializerTimingListERNS_15UninitedUpwardsE
   fun:_ZN11ImageLoader23recursiveInitializationERKNS_11LinkContextEjRNS_21InitializerTimingListERNS_15UninitedUpwardsE
   fun:_ZN11ImageLoader23recursiveInitializationERKNS_11LinkContextEjRNS_21InitializerTimingListERNS_15UninitedUpwardsE
}
{
   <insert_a_suppression_name_here>
   Memcheck:Leak
   match-leak-kinds: definite
   fun:malloc_zone_malloc
   fun:_CFRuntimeCreateInstance
   fun:CFBasicHashCreate
   fun:__CFSetCreateGeneric
   fun:CFSetCreate
   fun:_GLOBAL__sub_I_HTTPNetConnection_NoAuth.cpp
   fun:_ZN16ImageLoaderMachO18doModInitFunctionsERKN11ImageLoader11LinkContextE
   fun:_ZN16ImageLoaderMachO16doInitializationERKN11ImageLoader11LinkContextE
   fun:_ZN11ImageLoader23recursiveInitializationERKNS_11LinkContextEjRNS_21InitializerTimingListERNS_15UninitedUpwardsE
   fun:_ZN11ImageLoader23recursiveInitializationERKNS_11LinkContextEjRNS_21InitializerTimingListERNS_15UninitedUpwardsE
   fun:_ZN11ImageLoader23recursiveInitializationERKNS_11LinkContextEjRNS_21InitializerTimingListERNS_15UninitedUpwardsE
   fun:_ZN11ImageLoader23recursiveInitializationERKNS_11LinkContextEjRNS_21InitializerTimingListERNS_15UninitedUpwardsE
}
{
   <insert_a_suppression_name_here>
   Memcheck:Leak
   match-leak-kinds: possible
   fun:malloc_zone_calloc
   fun:NXCreateMapTable
   fun:call_load_methods
   fun:__CFMakeNSBlockClasses
   fun:__CFInitialize
   fun:_ZN16ImageLoaderMachO11doImageInitERKN11ImageLoader11LinkContextE
   fun:_ZN16ImageLoaderMachO16doInitializationERKN11ImageLoader11LinkContextE
   fun:_ZN11ImageLoader23recursiveInitializationERKNS_11LinkContextEjRNS_21InitializerTimingListERNS_15UninitedUpwardsE
   fun:_ZN11ImageLoader23recursiveInitializationERKNS_11LinkContextEjRNS_21InitializerTimingListERNS_15UninitedUpwardsE
   fun:_ZN11ImageLoader23recursiveInitializationERKNS_11LinkContextEjRNS_21InitializerTimingListERNS_15UninitedUpwardsE
   fun:_ZN11ImageLoader23recursiveInitializationERKNS_11LinkContextEjRNS_21InitializerTimingListERNS_15UninitedUpwardsE
   fun:_ZN11ImageLoader23recursiveInitializationERKNS_11LinkContextEjRNS_21InitializerTimingListERNS_15UninitedUpwardsE
}
{
   <insert_a_suppression_name_here>
   Memcheck:Leak
   match-leak-kinds: indirect
   fun:calloc
   fun:NXMapRemove
   fun:__CFAllocateObject2
   fun:+[__NSDictionaryM __new:::::]
   fun:-[__NSPlaceholderDictionary initWithCapacity:]
   fun:-[NSThread init]
   fun:____NSThreads_block_invoke
   fun:_dispatch_client_callout
   fun:dispatch_once_f
   fun:_NSThreadGet0
   fun:_NSInitializePlatform
   fun:cache_fill
}
{
   <insert_a_suppression_name_here>
   Memcheck:Leak
   match-leak-kinds: reachable
   fun:calloc
   fun:_class_getNonMetaClass
   fun:lookUpImpOrForward
   fun:objc_msgSendSuper_stret
   fun:class_createInstance
   fun:_ZL16attachCategoriesP10objc_classP26locstamped_category_list_tb
   fun:CFArrayCreate
   fun:__CFInitialize
   fun:_ZN16ImageLoaderMachO11doImageInitERKN11ImageLoader11LinkContextE
   fun:_ZN16ImageLoaderMachO16doInitializationERKN11ImageLoader11LinkContextE
   fun:_ZN11ImageLoader23recursiveInitializationERKNS_11LinkContextEjRNS_21InitializerTimingListERNS_15UninitedUpwardsE
   fun:_ZN11ImageLoader23recursiveInitializationERKNS_11LinkContextEjRNS_21InitializerTimingListERNS_15UninitedUpwardsE
}
{
   <insert_a_suppression_name_here>
   Memcheck:Leak
   match-leak-kinds: reachable
   fun:calloc
   fun:_class_getNonMetaClass
   fun:lookUpImpOrForward
   fun:objc_msgSendSuper_stret
   fun:class_createInstance
   fun:_ZL16attachCategoriesP10objc_classP26locstamped_category_list_tb
   fun:-[__NSDictionary0 _init]
   fun:__CFInitialize
   fun:_ZN16ImageLoaderMachO11doImageInitERKN11ImageLoader11LinkContextE
   fun:_ZN16ImageLoaderMachO16doInitializationERKN11ImageLoader11LinkContextE
   fun:_ZN11ImageLoader23recursiveInitializationERKNS_11LinkContextEjRNS_21InitializerTimingListERNS_15UninitedUpwardsE
   fun:_ZN11ImageLoader23recursiveInitializationERKNS_11LinkContextEjRNS_21InitializerTimingListERNS_15UninitedUpwardsE
}
{
   <insert_a_suppression_name_here>
   Memcheck:Leak
   match-leak-kinds: possible
   fun:calloc
   fun:_ZL12_NXMapMemberP11_NXMapTablePKvPPv
   fun:_ZL11_mapStrHashP11_NXMapTablePKv
   fun:objc_release
   fun:_object_remove_assocations
   fun:__CFInitialize
   fun:_ZN16ImageLoaderMachO11doImageInitERKN11ImageLoader11LinkContextE
   fun:_ZN16ImageLoaderMachO16doInitializationERKN11ImageLoader11LinkContextE
   fun:_ZN11ImageLoader23recursiveInitializationERKNS_11LinkContextEjRNS_21InitializerTimingListERNS_15UninitedUpwardsE
   fun:_ZN11ImageLoader23recursiveInitializationERKNS_11LinkContextEjRNS_21InitializerTimingListERNS_15UninitedUpwardsE
   fun:_ZN11ImageLoader23recursiveInitializationERKNS_11LinkContextEjRNS_21InitializerTimingListERNS_15UninitedUpwardsE
   fun:_ZN11ImageLoader23recursiveInitializationERKNS_11LinkContextEjRNS_21InitializerTimingListERNS_15UninitedUpwardsE
}
{
   <insert_a_suppression_name_here>
   Memcheck:Leak
   match-leak-kinds: definite
   fun:malloc_zone_malloc
   fun:_CFRuntimeCreateInstance
   fun:CFBasicHashCreate
   fun:__CFSetCreateGeneric
   fun:CFSetCreate
   fun:_GLOBAL__sub_I_HTTPTransaction.cpp
   fun:_ZN16ImageLoaderMachO18doModInitFunctionsERKN11ImageLoader11LinkContextE
   fun:_ZN16ImageLoaderMachO16doInitializationERKN11ImageLoader11LinkContextE
   fun:_ZN11ImageLoader23recursiveInitializationERKNS_11LinkContextEjRNS_21InitializerTimingListERNS_15UninitedUpwardsE
   fun:_ZN11ImageLoader23recursiveInitializationERKNS_11LinkContextEjRNS_21InitializerTimingListERNS_15UninitedUpwardsE
   fun:_ZN11ImageLoader23recursiveInitializationERKNS_11LinkContextEjRNS_21InitializerTimingListERNS_15UninitedUpwardsE
   fun:_ZN11ImageLoader23recursiveInitializationERKNS_11LinkContextEjRNS_21InitializerTimingListERNS_15UninitedUpwardsE
}
{
   <insert_a_suppression_name_here>
   Memcheck:Leak
   match-leak-kinds: possible
   fun:calloc
   fun:_ZL12_NXMapMemberP11_NXMapTablePKvPPv
   fun:objc_release
   fun:_NSToDoAtProcessStart
   fun:_NSInitializePlatform
   fun:cache_fill
   fun:NXMapRemove
   fun:_ZN4dyldL12notifySingleE17dyld_image_statesPK11ImageLoader
   fun:_ZN11ImageLoader23recursiveInitializationERKNS_11LinkContextEjRNS_21InitializerTimingListERNS_15UninitedUpwardsE
   fun:_ZN11ImageLoader23recursiveInitializationERKNS_11LinkContextEjRNS_21InitializerTimingListERNS_15UninitedUpwardsE
   fun:_ZN11ImageLoader23recursiveInitializationERKNS_11LinkContextEjRNS_21InitializerTimingListERNS_15UninitedUpwardsE
   fun:_ZN11ImageLoader23recursiveInitializationERKNS_11LinkContextEjRNS_21InitializerTimingListERNS_15UninitedUpwardsE
}
{
   <insert_a_suppression_name_here>
   Memcheck:Leak
   match-leak-kinds: possible
   fun:malloc
   fun:_ZL12realizeClassP10objc_class
   fun:_ZL11addSubclassP10objc_classS0_
   fun:_ZL12realizeClassP10objc_class
   fun:_ZL11_mapStrHashP11_NXMapTablePKv
   fun:objc_release
   fun:_object_remove_assocations
   fun:__CFInitialize
   fun:_ZN16ImageLoaderMachO11doImageInitERKN11ImageLoader11LinkContextE
   fun:_ZN16ImageLoaderMachO16doInitializationERKN11ImageLoader11LinkContextE
   fun:_ZN11ImageLoader23recursiveInitializationERKNS_11LinkContextEjRNS_21InitializerTimingListERNS_15UninitedUpwardsE
   fun:_ZN11ImageLoader23recursiveInitializationERKNS_11LinkContextEjRNS_21InitializerTimingListERNS_15UninitedUpwardsE
}
{
   <insert_a_suppression_name_here>
   Memcheck:Leak
   match-leak-kinds: reachable
   fun:calloc
   fun:_class_getNonMetaClass
   fun:lookUpImpOrForward
   fun:objc_msgSendSuper2_stret
   fun:class_createInstance
   fun:_ZL16attachCategoriesP10objc_classP26locstamped_category_list_tb
   fun:CFStringCreateWithSubstring
   fun:CFURLCreateStringWithFileSystemPath
   fun:CFURLGetFileSystemRepresentation
   fun:_CFBundleGetBundleVersionForURL
   fun:_CFBundleCreate
   fun:_CFBundleGetMainBundleAlreadyLocked
}
{
   <insert_a_suppression_name_here>
   Memcheck:Leak
   match-leak-kinds: reachable
   fun:calloc
   fun:_ZL12_NXMapMemberP11_NXMapTablePKvPPv
   fun:objc_release
   fun:__CFInitialize
   fun:_ZN16ImageLoaderMachO11doImageInitERKN11ImageLoader11LinkContextE
   fun:_ZN16ImageLoaderMachO16doInitializationERKN11ImageLoader11LinkContextE
   fun:_ZN11ImageLoader23recursiveInitializationERKNS_11LinkContextEjRNS_21InitializerTimingListERNS_15UninitedUpwardsE
   fun:_ZN11ImageLoader23recursiveInitializationERKNS_11LinkContextEjRNS_21InitializerTimingListERNS_15UninitedUpwardsE
   fun:_ZN11ImageLoader23recursiveInitializationERKNS_11LinkContextEjRNS_21InitializerTimingListERNS_15UninitedUpwardsE
   fun:_ZN11ImageLoader23recursiveInitializationERKNS_11LinkContextEjRNS_21InitializerTimingListERNS_15UninitedUpwardsE
   fun:_ZN11ImageLoader23recursiveInitializationERKNS_11LinkContextEjRNS_21InitializerTimingListERNS_15UninitedUpwardsE
   fun:_ZN11ImageLoader23recursiveInitializationERKNS_11LinkContextEjRNS_21InitializerTimingListERNS_15UninitedUpwardsE
}
{
   <insert_a_suppression_name_here>
   Memcheck:Leak
   match-leak-kinds: indirect
   fun:malloc_zone_malloc
   fun:__CFBasicHashRehash
   fun:CFSetCreate
   fun:_GLOBAL__sub_I_Throttler.cpp
   fun:_ZN16ImageLoaderMachO18doModInitFunctionsERKN11ImageLoader11LinkContextE
   fun:_ZN16ImageLoaderMachO16doInitializationERKN11ImageLoader11LinkContextE
   fun:_ZN11ImageLoader23recursiveInitializationERKNS_11LinkContextEjRNS_21InitializerTimingListERNS_15UninitedUpwardsE
   fun:_ZN11ImageLoader23recursiveInitializationERKNS_11LinkContextEjRNS_21InitializerTimingListERNS_15UninitedUpwardsE
   fun:_ZN11ImageLoader23recursiveInitializationERKNS_11LinkContextEjRNS_21InitializerTimingListERNS_15UninitedUpwardsE
   fun:_ZN11ImageLoader23recursiveInitializationERKNS_11LinkContextEjRNS_21InitializerTimingListERNS_15UninitedUpwardsE
   fun:_ZN11ImageLoader23recursiveInitializationERKNS_11LinkContextEjRNS_21InitializerTimingListERNS_15UninitedUpwardsE
   fun:_ZN11ImageLoader23recursiveInitializationERKNS_11LinkContextEjRNS_21InitializerTimingListERNS_15UninitedUpwardsE
}
{
   <insert_a_suppression_name_here>
   Memcheck:Leak
   match-leak-kinds: possible
   fun:malloc_zone_calloc
   fun:NXCreateMapTable
   fun:_ZL12realizeClassP10objc_class
   fun:_ZL11_mapStrHashP11_NXMapTablePKv
   fun:objc_release
   fun:_object_remove_assocations
   fun:__CFInitialize
   fun:_ZN16ImageLoaderMachO11doImageInitERKN11ImageLoader11LinkContextE
   fun:_ZN16ImageLoaderMachO16doInitializationERKN11ImageLoader11LinkContextE
   fun:_ZN11ImageLoader23recursiveInitializationERKNS_11LinkContextEjRNS_21InitializerTimingListERNS_15UninitedUpwardsE
   fun:_ZN11ImageLoader23recursiveInitializationERKNS_11LinkContextEjRNS_21InitializerTimingListERNS_15UninitedUpwardsE
   fun:_ZN11ImageLoader23recursiveInitializationERKNS_11LinkContextEjRNS_21InitializerTimingListERNS_15UninitedUpwardsE
}
{
   <insert_a_suppression_name_here>
   Memcheck:Leak
   match-leak-kinds: reachable
   fun:calloc
   fun:_class_getNonMetaClass
   fun:lookUpImpOrForward
   fun:objc_msgSendSuper_stret
   fun:class_createInstance
   fun:_ZL16attachCategoriesP10objc_classP26locstamped_category_list_tb
   fun:__CFInitialize
   fun:_ZN16ImageLoaderMachO11doImageInitERKN11ImageLoader11LinkContextE
   fun:_ZN16ImageLoaderMachO16doInitializationERKN11ImageLoader11LinkContextE
   fun:_ZN11ImageLoader23recursiveInitializationERKNS_11LinkContextEjRNS_21InitializerTimingListERNS_15UninitedUpwardsE
   fun:_ZN11ImageLoader23recursiveInitializationERKNS_11LinkContextEjRNS_21InitializerTimingListERNS_15UninitedUpwardsE
   fun:_ZN11ImageLoader23recursiveInitializationERKNS_11LinkContextEjRNS_21InitializerTimingListERNS_15UninitedUpwardsE
}
{
   <insert_a_suppression_name_here>
   Memcheck:Leak
   match-leak-kinds: reachable
   fun:calloc
   fun:_ZN10objc_class13getLoadMethodEv
   fun:add_class_to_loadable_list
   fun:__CFMakeNSBlockClasses
   fun:__CFInitialize
   fun:_ZN16ImageLoaderMachO11doImageInitERKN11ImageLoader11LinkContextE
   fun:_ZN16ImageLoaderMachO16doInitializationERKN11ImageLoader11LinkContextE
   fun:_ZN11ImageLoader23recursiveInitializationERKNS_11LinkContextEjRNS_21InitializerTimingListERNS_15UninitedUpwardsE
   fun:_ZN11ImageLoader23recursiveInitializationERKNS_11LinkContextEjRNS_21InitializerTimingListERNS_15UninitedUpwardsE
   fun:_ZN11ImageLoader23recursiveInitializationERKNS_11LinkContextEjRNS_21InitializerTimingListERNS_15UninitedUpwardsE
   fun:_ZN11ImageLoader23recursiveInitializationERKNS_11LinkContextEjRNS_21InitializerTimingListERNS_15UninitedUpwardsE
   fun:_ZN11ImageLoader23recursiveInitializationERKNS_11LinkContextEjRNS_21InitializerTimingListERNS_15UninitedUpwardsE
}
{
   <insert_a_suppression_name_here>
   Memcheck:Leak
   match-leak-kinds: definite
   fun:malloc_zone_malloc
   fun:_CFRuntimeCreateInstance
   fun:CFBasicHashCreate
   fun:__CFSetCreateGeneric
   fun:CFSetCreate
   fun:_GLOBAL__sub_I_CFURLProtocolUtilities.cpp
   fun:_ZN16ImageLoaderMachO18doModInitFunctionsERKN11ImageLoader11LinkContextE
   fun:_ZN16ImageLoaderMachO16doInitializationERKN11ImageLoader11LinkContextE
   fun:_ZN11ImageLoader23recursiveInitializationERKNS_11LinkContextEjRNS_21InitializerTimingListERNS_15UninitedUpwardsE
   fun:_ZN11ImageLoader23recursiveInitializationERKNS_11LinkContextEjRNS_21InitializerTimingListERNS_15UninitedUpwardsE
   fun:_ZN11ImageLoader23recursiveInitializationERKNS_11LinkContextEjRNS_21InitializerTimingListERNS_15UninitedUpwardsE
   fun:_ZN11ImageLoader23recursiveInitializationERKNS_11LinkContextEjRNS_21InitializerTimingListERNS_15UninitedUpwardsE
}
{
   <insert_a_suppression_name_here>
   Memcheck:Leak
   match-leak-kinds: definite
   fun:malloc_zone_malloc
   fun:_CFRuntimeCreateInstance
   fun:CFBasicHashCreate
   fun:__CFSetCreateGeneric
   fun:CFSetCreate
   fun:_GLOBAL__sub_I_NSURLProtocol.mm
   fun:_ZN16ImageLoaderMachO18doModInitFunctionsERKN11ImageLoader11LinkContextE
   fun:_ZN16ImageLoaderMachO16doInitializationERKN11ImageLoader11LinkContextE
   fun:_ZN11ImageLoader23recursiveInitializationERKNS_11LinkContextEjRNS_21InitializerTimingListERNS_15UninitedUpwardsE
   fun:_ZN11ImageLoader23recursiveInitializationERKNS_11LinkContextEjRNS_21InitializerTimingListERNS_15UninitedUpwardsE
   fun:_ZN11ImageLoader23recursiveInitializationERKNS_11LinkContextEjRNS_21InitializerTimingListERNS_15UninitedUpwardsE
   fun:_ZN11ImageLoader23recursiveInitializationERKNS_11LinkContextEjRNS_21InitializerTimingListERNS_15UninitedUpwardsE
}
{
   <insert_a_suppression_name_here>
   Memcheck:Leak
   match-leak-kinds: possible
   fun:calloc
   fun:_ZL12_NXMapMemberP11_NXMapTablePKvPPv
   fun:cache_getImp
   fun:_Z28_getObjc2NonlazyCategoryListPK14mach_header_64Pm
   fun:_ZL16attachCategoriesP10objc_classP26locstamped_category_list_tb
   fun:-[__NSPlaceholderDictionary initWithObjects:forKeys:count:]
   fun:+[NSDictionary dictionaryWithObjects:forKeys:count:]
   fun:__31+[DDGeoSource tableNameMapping]_block_invoke
   fun:_dispatch_client_callout
   fun:dispatch_once_f
   fun:+[DDGeoSource tableNameMapping]
   fun:+[DDGeoSource tableNames]
}
{
   <insert_a_suppression_name_here>
   Memcheck:Leak
   match-leak-kinds: reachable
   fun:calloc
   fun:_class_getNonMetaClass
   fun:lookUpImpOrForward
   fun:objc_msgSendSuper2_stret
   fun:class_createInstance
   fun:_ZL16attachCategoriesP10objc_classP26locstamped_category_list_tb
   fun:-[NSDictionary allKeys]
   fun:+[DDDynamicSource registerDynamicSourceClass:forSourceKind:]
   fun:+[DDGeoSource load]
   fun:_ZL19_finishInitializingP10objc_classS0_
   fun:NXMapRemove
   fun:_ZN4dyldL12notifySingleE17dyld_image_statesPK11ImageLoader
}
{
   <insert_a_suppression_name_here>
   Memcheck:Leak
   match-leak-kinds: indirect
   fun:malloc_zone_malloc
   fun:_CFRuntimeCreateInstance
   fun:__CFStringCreateImmutableFunnel3
   fun:CFStringCreateWithBytes
   fun:CFURLCopyFileSystemPath
   fun:_CFBundleCreate
   fun:_CFBundleGetMainBundleAlreadyLocked
   fun:CFBundleGetMainBundle
   fun:___bundleInfo_block_invoke
   fun:_dispatch_client_callout
   fun:dispatch_once_f
   fun:_CFAppVersionCheckLessThan
}
{
   <insert_a_suppression_name_here>
   Memcheck:Leak
   match-leak-kinds: indirect
   fun:malloc_zone_malloc
   fun:__CFBasicHashRehash
   fun:CFSetCreate
   fun:_GLOBAL__sub_I_AwaitingTube.cpp
   fun:_ZN16ImageLoaderMachO18doModInitFunctionsERKN11ImageLoader11LinkContextE
   fun:_ZN16ImageLoaderMachO16doInitializationERKN11ImageLoader11LinkContextE
   fun:_ZN11ImageLoader23recursiveInitializationERKNS_11LinkContextEjRNS_21InitializerTimingListERNS_15UninitedUpwardsE
   fun:_ZN11ImageLoader23recursiveInitializationERKNS_11LinkContextEjRNS_21InitializerTimingListERNS_15UninitedUpwardsE
   fun:_ZN11ImageLoader23recursiveInitializationERKNS_11LinkContextEjRNS_21InitializerTimingListERNS_15UninitedUpwardsE
   fun:_ZN11ImageLoader23recursiveInitializationERKNS_11LinkContextEjRNS_21InitializerTimingListERNS_15UninitedUpwardsE
   fun:_ZN11ImageLoader23recursiveInitializationERKNS_11LinkContextEjRNS_21InitializerTimingListERNS_15UninitedUpwardsE
   fun:_ZN11ImageLoader23recursiveInitializationERKNS_11LinkContextEjRNS_21InitializerTimingListERNS_15UninitedUpwardsE
}
{
   <insert_a_suppression_name_here>
   Memcheck:Leak
   match-leak-kinds: definite
   fun:malloc_zone_malloc
   fun:_CFRuntimeCreateInstance
   fun:CFBasicHashCreate
   fun:__CFSetCreateGeneric
   fun:CFSetCreate
   fun:_GLOBAL__sub_I_CFURLConnection.cpp
   fun:_ZN16ImageLoaderMachO18doModInitFunctionsERKN11ImageLoader11LinkContextE
   fun:_ZN16ImageLoaderMachO16doInitializationERKN11ImageLoader11LinkContextE
   fun:_ZN11ImageLoader23recursiveInitializationERKNS_11LinkContextEjRNS_21InitializerTimingListERNS_15UninitedUpwardsE
   fun:_ZN11ImageLoader23recursiveInitializationERKNS_11LinkContextEjRNS_21InitializerTimingListERNS_15UninitedUpwardsE
   fun:_ZN11ImageLoader23recursiveInitializationERKNS_11LinkContextEjRNS_21InitializerTimingListERNS_15UninitedUpwardsE
   fun:_ZN11ImageLoader23recursiveInitializationERKNS_11LinkContextEjRNS_21InitializerTimingListERNS_15UninitedUpwardsE
}
{
   <insert_a_suppression_name_here>
   Memcheck:Leak
   match-leak-kinds: definite
   fun:malloc_zone_malloc
   fun:_CFRuntimeCreateInstance
   fun:CFBasicHashCreate
   fun:__CFSetCreateGeneric
   fun:CFSetCreate
   fun:_GLOBAL__sub_I_CFHTTPConnection.c
   fun:_ZN16ImageLoaderMachO18doModInitFunctionsERKN11ImageLoader11LinkContextE
   fun:_ZN16ImageLoaderMachO16doInitializationERKN11ImageLoader11LinkContextE
   fun:_ZN11ImageLoader23recursiveInitializationERKNS_11LinkContextEjRNS_21InitializerTimingListERNS_15UninitedUpwardsE
   fun:_ZN11ImageLoader23recursiveInitializationERKNS_11LinkContextEjRNS_21InitializerTimingListERNS_15UninitedUpwardsE
   fun:_ZN11ImageLoader23recursiveInitializationERKNS_11LinkContextEjRNS_21InitializerTimingListERNS_15UninitedUpwardsE
   fun:_ZN11ImageLoader23recursiveInitializationERKNS_11LinkContextEjRNS_21InitializerTimingListERNS_15UninitedUpwardsE
}
{
   <insert_a_suppression_name_here>
   Memcheck:Leak
   match-leak-kinds: definite
   fun:malloc_zone_malloc
   fun:_CFRuntimeCreateInstance
   fun:CFBasicHashCreate
   fun:__CFSetCreateGeneric
   fun:CFSetCreate
   fun:_GLOBAL__sub_I_AwaitingTube.cpp
   fun:_ZN16ImageLoaderMachO18doModInitFunctionsERKN11ImageLoader11LinkContextE
   fun:_ZN16ImageLoaderMachO16doInitializationERKN11ImageLoader11LinkContextE
   fun:_ZN11ImageLoader23recursiveInitializationERKNS_11LinkContextEjRNS_21InitializerTimingListERNS_15UninitedUpwardsE
   fun:_ZN11ImageLoader23recursiveInitializationERKNS_11LinkContextEjRNS_21InitializerTimingListERNS_15UninitedUpwardsE
   fun:_ZN11ImageLoader23recursiveInitializationERKNS_11LinkContextEjRNS_21InitializerTimingListERNS_15UninitedUpwardsE
   fun:_ZN11ImageLoader23recursiveInitializationERKNS_11LinkContextEjRNS_21InitializerTimingListERNS_15UninitedUpwardsE
}
{
   <insert_a_suppression_name_here>
   Memcheck:Leak
   match-leak-kinds: reachable
   fun:calloc
   fun:_ZL12_NXMapMemberP11_NXMapTablePKvPPv
   fun:hasLoadMethods
   fun:_ZL16attachCategoriesP10objc_classP26locstamped_category_list_tb
   fun:+[NSString initialize]
   fun:objc_msgSend_fpret
   fun:objc_msgSendSuper
   fun:_Z28_getObjc2NonlazyCategoryListPK14mach_header_64Pm
   fun:_ZL16attachCategoriesP10objc_classP26locstamped_category_list_tb
   fun:+[NSMutableString initialize]
   fun:objc_msgSend_fpret
   fun:_Z28_getObjc2NonlazyCategoryListPK14mach_header_64Pm
}
{
   <insert_a_suppression_name_here>
   Memcheck:Leak
   match-leak-kinds: definite
   fun:malloc_zone_malloc
   fun:_CFRuntimeCreateInstance
   fun:CFBasicHashCreate
   fun:__CFSetCreateGeneric
   fun:CFSetCreate
   fun:_GLOBAL__sub_I_SPDYConnectionCacheEntry.cpp
   fun:_ZN16ImageLoaderMachO18doModInitFunctionsERKN11ImageLoader11LinkContextE
   fun:_ZN16ImageLoaderMachO16doInitializationERKN11ImageLoader11LinkContextE
   fun:_ZN11ImageLoader23recursiveInitializationERKNS_11LinkContextEjRNS_21InitializerTimingListERNS_15UninitedUpwardsE
   fun:_ZN11ImageLoader23recursiveInitializationERKNS_11LinkContextEjRNS_21InitializerTimingListERNS_15UninitedUpwardsE
   fun:_ZN11ImageLoader23recursiveInitializationERKNS_11LinkContextEjRNS_21InitializerTimingListERNS_15UninitedUpwardsE
   fun:_ZN11ImageLoader23recursiveInitializationERKNS_11LinkContextEjRNS_21InitializerTimingListERNS_15UninitedUpwardsE
}
{
   <insert_a_suppression_name_here>
   Memcheck:Leak
   match-leak-kinds: indirect
   fun:malloc_zone_malloc
   fun:__CFBasicHashRehash
   fun:CFSetCreate
   fun:_GLOBAL__sub_I_HTTP2ConnectionCacheEntry.cpp
   fun:_ZN16ImageLoaderMachO18doModInitFunctionsERKN11ImageLoader11LinkContextE
   fun:_ZN16ImageLoaderMachO16doInitializationERKN11ImageLoader11LinkContextE
   fun:_ZN11ImageLoader23recursiveInitializationERKNS_11LinkContextEjRNS_21InitializerTimingListERNS_15UninitedUpwardsE
   fun:_ZN11ImageLoader23recursiveInitializationERKNS_11LinkContextEjRNS_21InitializerTimingListERNS_15UninitedUpwardsE
   fun:_ZN11ImageLoader23recursiveInitializationERKNS_11LinkContextEjRNS_21InitializerTimingListERNS_15UninitedUpwardsE
   fun:_ZN11ImageLoader23recursiveInitializationERKNS_11LinkContextEjRNS_21InitializerTimingListERNS_15UninitedUpwardsE
   fun:_ZN11ImageLoader23recursiveInitializationERKNS_11LinkContextEjRNS_21InitializerTimingListERNS_15UninitedUpwardsE
   fun:_ZN11ImageLoader23recursiveInitializationERKNS_11LinkContextEjRNS_21InitializerTimingListERNS_15UninitedUpwardsE
}
{
   <insert_a_suppression_name_here>
   Memcheck:Leak
   match-leak-kinds: reachable
   fun:calloc
   fun:_ZL12_NXMapMemberP11_NXMapTablePKvPPv
   fun:_ZL11_mapStrHashP11_NXMapTablePKv
   fun:objc_release
   fun:____FoundationPresent_block_invoke
   fun:_dispatch_client_callout
   fun:dispatch_once_f
   fun:CFArrayCreate
   fun:__CFInitialize
   fun:_ZN16ImageLoaderMachO11doImageInitERKN11ImageLoader11LinkContextE
   fun:_ZN16ImageLoaderMachO16doInitializationERKN11ImageLoader11LinkContextE
   fun:_ZN11ImageLoader23recursiveInitializationERKNS_11LinkContextEjRNS_21InitializerTimingListERNS_15UninitedUpwardsE
}
{
   <insert_a_suppression_name_here>
   Memcheck:Leak
   match-leak-kinds: possible
   fun:realloc
   fun:_ZL11addSubclassP10objc_classS0_
   fun:_ZL11addSubclassP10objc_classS0_
   fun:_ZN13list_array_ttIm15protocol_list_tE11attachListsEPKPS0_j
   fun:_read_images
   fun:map_images_nolock
   fun:map_2_images
   fun:_ZN4dyldL18notifyBatchPartialE17dyld_image_statesbPFPKcS0_jPK15dyld_image_infoE
   fun:_ZN4dyld36registerImageStateBatchChangeHandlerE17dyld_image_statesPFPKcS0_jPK15dyld_image_infoE
   fun:dyld_register_image_state_change_handler
   fun:_objc_init
   fun:_os_object_init
}
{
   <insert_a_suppression_name_here>
   Memcheck:Leak
   match-leak-kinds: possible
   fun:malloc_zone_calloc
   fun:NXCreateMapTable
   fun:_ZL12realizeClassP10objc_class
   fun:_ZL11_mapStrHashP11_NXMapTablePKv
   fun:objc_release
   fun:_NSToDoAtProcessStart
   fun:_NSInitializePlatform
   fun:cache_fill
   fun:NXMapRemove
   fun:_ZN4dyldL12notifySingleE17dyld_image_statesPK11ImageLoader
   fun:_ZN11ImageLoader23recursiveInitializationERKNS_11LinkContextEjRNS_21InitializerTimingListERNS_15UninitedUpwardsE
   fun:_ZN11ImageLoader23recursiveInitializationERKNS_11LinkContextEjRNS_21InitializerTimingListERNS_15UninitedUpwardsE
}
{
   <insert_a_suppression_name_here>
   Memcheck:Leak
   match-leak-kinds: definite
   fun:malloc_zone_malloc
   fun:__CFUniCharLoadBitmapData
   fun:CFUniCharGetBitmapPtrForPlane
   fun:__CFUniCharLoadDecompositionTable
   fun:CFUniCharDecompose
   fun:CFStringGetFileSystemRepresentation
   fun:_CFURLCreateWithFileSystemPath
   fun:_CFBundleCopyBundleURLForExecutableURL
   fun:_CFBundleGetMainBundleAlreadyLocked
   fun:CFBundleGetMainBundle
   fun:___bundleInfo_block_invoke
   fun:_dispatch_client_callout
}
{
   <insert_a_suppression_name_here>
   Memcheck:Leak
   match-leak-kinds: reachable
   fun:malloc_zone_malloc
   fun:__CFBasicHashRehash
   fun:__CFBasicHashAddValue
   fun:CFDictionarySetValue
   fun:DDLookupTableRegisterDynamicTableNames
   fun:+[DDAddressBookSource load]
   fun:_ZL19_finishInitializingP10objc_classS0_
   fun:NXMapRemove
   fun:_ZN4dyldL12notifySingleE17dyld_image_statesPK11ImageLoader
   fun:_ZN11ImageLoader23recursiveInitializationERKNS_11LinkContextEjRNS_21InitializerTimingListERNS_15UninitedUpwardsE
   fun:_ZN11ImageLoader23recursiveInitializationERKNS_11LinkContextEjRNS_21InitializerTimingListERNS_15UninitedUpwardsE
   fun:_ZN11ImageLoader23recursiveInitializationERKNS_11LinkContextEjRNS_21InitializerTimingListERNS_15UninitedUpwardsE
}
{
   <insert_a_suppression_name_here>
   Memcheck:Leak
   match-leak-kinds: definite
   fun:malloc_zone_malloc
   fun:_CFRuntimeCreateInstance
   fun:CFBasicHashCreate
   fun:__CFSetCreateGeneric
   fun:CFSetCreate
   fun:_GLOBAL__sub_I_LocalSessionTask.mm
   fun:_ZN16ImageLoaderMachO18doModInitFunctionsERKN11ImageLoader11LinkContextE
   fun:_ZN16ImageLoaderMachO16doInitializationERKN11ImageLoader11LinkContextE
   fun:_ZN11ImageLoader23recursiveInitializationERKNS_11LinkContextEjRNS_21InitializerTimingListERNS_15UninitedUpwardsE
   fun:_ZN11ImageLoader23recursiveInitializationERKNS_11LinkContextEjRNS_21InitializerTimingListERNS_15UninitedUpwardsE
   fun:_ZN11ImageLoader23recursiveInitializationERKNS_11LinkContextEjRNS_21InitializerTimingListERNS_15UninitedUpwardsE
   fun:_ZN11ImageLoader23recursiveInitializationERKNS_11LinkContextEjRNS_21InitializerTimingListERNS_15UninitedUpwardsE
}
{
   <insert_a_suppression_name_here>
   Memcheck:Leak
   match-leak-kinds: reachable
   fun:calloc
   fun:_ZL12_NXMapMemberP11_NXMapTablePKvPPv
   fun:hasLoadMethods
   fun:_ZL16attachCategoriesP10objc_classP26locstamped_category_list_tb
   fun:_NSPlaceholderValueOrNumber
   fun:objc_msgSend_fpret
   fun:objc_msgSendSuper
   fun:_Z28_getObjc2NonlazyCategoryListPK14mach_header_64Pm
   fun:_ZL16attachCategoriesP10objc_classP26locstamped_category_list_tb
   fun:+[DDDynamicSource registerDynamicSourceClass:forSourceKind:]
   fun:+[DDGeoSource load]
   fun:_ZL19_finishInitializingP10objc_classS0_
}
{
   <insert_a_suppression_name_here>
   Memcheck:Leak
   match-leak-kinds: indirect
   fun:malloc_zone_malloc
   fun:__CFBasicHashRehash
   fun:CFSetCreate
   fun:_GLOBAL__sub_I_CFNetworkErrors.c
   fun:_ZN16ImageLoaderMachO18doModInitFunctionsERKN11ImageLoader11LinkContextE
   fun:_ZN16ImageLoaderMachO16doInitializationERKN11ImageLoader11LinkContextE
   fun:_ZN11ImageLoader23recursiveInitializationERKNS_11LinkContextEjRNS_21InitializerTimingListERNS_15UninitedUpwardsE
   fun:_ZN11ImageLoader23recursiveInitializationERKNS_11LinkContextEjRNS_21InitializerTimingListERNS_15UninitedUpwardsE
   fun:_ZN11ImageLoader23recursiveInitializationERKNS_11LinkContextEjRNS_21InitializerTimingListERNS_15UninitedUpwardsE
   fun:_ZN11ImageLoader23recursiveInitializationERKNS_11LinkContextEjRNS_21InitializerTimingListERNS_15UninitedUpwardsE
   fun:_ZN11ImageLoader23recursiveInitializationERKNS_11LinkContextEjRNS_21InitializerTimingListERNS_15UninitedUpwardsE
   fun:_ZN11ImageLoader23recursiveInitializationERKNS_11LinkContextEjRNS_21InitializerTimingListERNS_15UninitedUpwardsE
}
{
   <insert_a_suppression_name_here>
   Memcheck:Leak
   match-leak-kinds: definite
   fun:malloc_zone_malloc
   fun:_CFRuntimeCreateInstance
   fun:CFBasicHashCreate
   fun:__CFSetCreateGeneric
   fun:CFSetCreate
   fun:_GLOBAL__sub_I_Serializable.cpp
   fun:_ZN16ImageLoaderMachO18doModInitFunctionsERKN11ImageLoader11LinkContextE
   fun:_ZN16ImageLoaderMachO16doInitializationERKN11ImageLoader11LinkContextE
   fun:_ZN11ImageLoader23recursiveInitializationERKNS_11LinkContextEjRNS_21InitializerTimingListERNS_15UninitedUpwardsE
   fun:_ZN11ImageLoader23recursiveInitializationERKNS_11LinkContextEjRNS_21InitializerTimingListERNS_15UninitedUpwardsE
   fun:_ZN11ImageLoader23recursiveInitializationERKNS_11LinkContextEjRNS_21InitializerTimingListERNS_15UninitedUpwardsE
   fun:_ZN11ImageLoader23recursiveInitializationERKNS_11LinkContextEjRNS_21InitializerTimingListERNS_15UninitedUpwardsE
}
{
   <insert_a_suppression_name_here>
   Memcheck:Leak
   match-leak-kinds: reachable
   fun:calloc
   fun:_class_getNonMetaClass
   fun:lookUpImpOrForward
   fun:objc_msgSendSuper_stret
   fun:class_createInstance
   fun:_ZL16attachCategoriesP10objc_classP26locstamped_category_list_tb
   fun:+[NSDictionary allocWithZone:]
   fun:+[__NSDictionary0 _alloc]
   fun:__CFInitialize
   fun:_ZN16ImageLoaderMachO11doImageInitERKN11ImageLoader11LinkContextE
   fun:_ZN16ImageLoaderMachO16doInitializationERKN11ImageLoader11LinkContextE
   fun:_ZN11ImageLoader23recursiveInitializationERKNS_11LinkContextEjRNS_21InitializerTimingListERNS_15UninitedUpwardsE
}
{
   <insert_a_suppression_name_here>
   Memcheck:Leak
   match-leak-kinds: reachable
   fun:calloc
   fun:_ZL12_NXMapMemberP11_NXMapTablePKvPPv
   fun:_ZL11_mapStrHashP11_NXMapTablePKv
   fun:objc_release
   fun:_object_remove_assocations
   fun:__CFInitialize
   fun:_ZN16ImageLoaderMachO11doImageInitERKN11ImageLoader11LinkContextE
   fun:_ZN16ImageLoaderMachO16doInitializationERKN11ImageLoader11LinkContextE
   fun:_ZN11ImageLoader23recursiveInitializationERKNS_11LinkContextEjRNS_21InitializerTimingListERNS_15UninitedUpwardsE
   fun:_ZN11ImageLoader23recursiveInitializationERKNS_11LinkContextEjRNS_21InitializerTimingListERNS_15UninitedUpwardsE
   fun:_ZN11ImageLoader23recursiveInitializationERKNS_11LinkContextEjRNS_21InitializerTimingListERNS_15UninitedUpwardsE
   fun:_ZN11ImageLoader23recursiveInitializationERKNS_11LinkContextEjRNS_21InitializerTimingListERNS_15UninitedUpwardsE
}
{
   <insert_a_suppression_name_here>
   Memcheck:Leak
   match-leak-kinds: reachable
   fun:calloc
   fun:_ZL12_NXMapMemberP11_NXMapTablePKvPPv
   fun:cache_getImp
   fun:_Z28_getObjc2NonlazyCategoryListPK14mach_header_64Pm
   fun:_ZL16attachCategoriesP10objc_classP26locstamped_category_list_tb
   fun:CFArrayCreate
   fun:__CFInitialize
   fun:_ZN16ImageLoaderMachO11doImageInitERKN11ImageLoader11LinkContextE
   fun:_ZN16ImageLoaderMachO16doInitializationERKN11ImageLoader11LinkContextE
   fun:_ZN11ImageLoader23recursiveInitializationERKNS_11LinkContextEjRNS_21InitializerTimingListERNS_15UninitedUpwardsE
   fun:_ZN11ImageLoader23recursiveInitializationERKNS_11LinkContextEjRNS_21InitializerTimingListERNS_15UninitedUpwardsE
   fun:_ZN11ImageLoader23recursiveInitializationERKNS_11LinkContextEjRNS_21InitializerTimingListERNS_15UninitedUpwardsE
}
{
   <insert_a_suppression_name_here>
   Memcheck:Leak
   match-leak-kinds: indirect
   fun:malloc_zone_malloc
   fun:__CFBasicHashRehash
   fun:CFSetCreate
   fun:_GLOBAL__sub_I_HTTPConnection.cpp
   fun:_ZN16ImageLoaderMachO18doModInitFunctionsERKN11ImageLoader11LinkContextE
   fun:_ZN16ImageLoaderMachO16doInitializationERKN11ImageLoader11LinkContextE
   fun:_ZN11ImageLoader23recursiveInitializationERKNS_11LinkContextEjRNS_21InitializerTimingListERNS_15UninitedUpwardsE
   fun:_ZN11ImageLoader23recursiveInitializationERKNS_11LinkContextEjRNS_21InitializerTimingListERNS_15UninitedUpwardsE
   fun:_ZN11ImageLoader23recursiveInitializationERKNS_11LinkContextEjRNS_21InitializerTimingListERNS_15UninitedUpwardsE
   fun:_ZN11ImageLoader23recursiveInitializationERKNS_11LinkContextEjRNS_21InitializerTimingListERNS_15UninitedUpwardsE
   fun:_ZN11ImageLoader23recursiveInitializationERKNS_11LinkContextEjRNS_21InitializerTimingListERNS_15UninitedUpwardsE
   fun:_ZN11ImageLoader23recursiveInitializationERKNS_11LinkContextEjRNS_21InitializerTimingListERNS_15UninitedUpwardsE
}
{
   <insert_a_suppression_name_here>
   Memcheck:Leak
   match-leak-kinds: definite
   fun:malloc_zone_malloc
   fun:_CFRuntimeCreateInstance
   fun:CFBasicHashCreate
   fun:__CFSetCreateGeneric
   fun:CFSetCreate
   fun:_GLOBAL__sub_I_DataProtocol.cpp
   fun:_ZN16ImageLoaderMachO18doModInitFunctionsERKN11ImageLoader11LinkContextE
   fun:_ZN16ImageLoaderMachO16doInitializationERKN11ImageLoader11LinkContextE
   fun:_ZN11ImageLoader23recursiveInitializationERKNS_11LinkContextEjRNS_21InitializerTimingListERNS_15UninitedUpwardsE
   fun:_ZN11ImageLoader23recursiveInitializationERKNS_11LinkContextEjRNS_21InitializerTimingListERNS_15UninitedUpwardsE
   fun:_ZN11ImageLoader23recursiveInitializationERKNS_11LinkContextEjRNS_21InitializerTimingListERNS_15UninitedUpwardsE
   fun:_ZN11ImageLoader23recursiveInitializationERKNS_11LinkContextEjRNS_21InitializerTimingListERNS_15UninitedUpwardsE
}
{
   <insert_a_suppression_name_here>
   Memcheck:Leak
   match-leak-kinds: possible
   fun:calloc
   fun:_ZL12_NXMapMemberP11_NXMapTablePKvPPv
   fun:cache_getImp
   fun:_Z28_getObjc2NonlazyCategoryListPK14mach_header_64Pm
   fun:_ZL16attachCategoriesP10objc_classP26locstamped_category_list_tb
   fun:_NSToDoAtProcessStart
   fun:_NSInitializePlatform
   fun:cache_fill
   fun:NXMapRemove
   fun:_ZN4dyldL12notifySingleE17dyld_image_statesPK11ImageLoader
   fun:_ZN11ImageLoader23recursiveInitializationERKNS_11LinkContextEjRNS_21InitializerTimingListERNS_15UninitedUpwardsE
   fun:_ZN11ImageLoader23recursiveInitializationERKNS_11LinkContextEjRNS_21InitializerTimingListERNS_15UninitedUpwardsE
}
{
   <insert_a_suppression_name_here>
   Memcheck:Leak
   match-leak-kinds: definite
   fun:malloc_zone_malloc
   fun:_CFRuntimeCreateInstance
   fun:CFBasicHashCreate
   fun:__CFSetCreateGeneric
   fun:CFSetCreate
   fun:_GLOBAL__sub_I_STubeManager.cpp
   fun:_ZN16ImageLoaderMachO18doModInitFunctionsERKN11ImageLoader11LinkContextE
   fun:_ZN16ImageLoaderMachO16doInitializationERKN11ImageLoader11LinkContextE
   fun:_ZN11ImageLoader23recursiveInitializationERKNS_11LinkContextEjRNS_21InitializerTimingListERNS_15UninitedUpwardsE
   fun:_ZN11ImageLoader23recursiveInitializationERKNS_11LinkContextEjRNS_21InitializerTimingListERNS_15UninitedUpwardsE
   fun:_ZN11ImageLoader23recursiveInitializationERKNS_11LinkContextEjRNS_21InitializerTimingListERNS_15UninitedUpwardsE
   fun:_ZN11ImageLoader23recursiveInitializationERKNS_11LinkContextEjRNS_21InitializerTimingListERNS_15UninitedUpwardsE
}
{
   <insert_a_suppression_name_here>
   Memcheck:Leak
   match-leak-kinds: definite
   fun:malloc_zone_malloc
   fun:_CFRuntimeCreateInstance
   fun:CFBasicHashCreate
   fun:__CFSetCreateGeneric
   fun:CFSetCreate
   fun:_GLOBAL__sub_I_HTTPEngine.cpp
   fun:_ZN16ImageLoaderMachO18doModInitFunctionsERKN11ImageLoader11LinkContextE
   fun:_ZN16ImageLoaderMachO16doInitializationERKN11ImageLoader11LinkContextE
   fun:_ZN11ImageLoader23recursiveInitializationERKNS_11LinkContextEjRNS_21InitializerTimingListERNS_15UninitedUpwardsE
   fun:_ZN11ImageLoader23recursiveInitializationERKNS_11LinkContextEjRNS_21InitializerTimingListERNS_15UninitedUpwardsE
   fun:_ZN11ImageLoader23recursiveInitializationERKNS_11LinkContextEjRNS_21InitializerTimingListERNS_15UninitedUpwardsE
   fun:_ZN11ImageLoader23recursiveInitializationERKNS_11LinkContextEjRNS_21InitializerTimingListERNS_15UninitedUpwardsE
}
{
   <insert_a_suppression_name_here>
   Memcheck:Leak
   match-leak-kinds: reachable
   fun:malloc_zone_malloc
   fun:_CFRuntimeCreateInstance
   fun:CFBasicHashCreate
   fun:__CFSetCreateGeneric
   fun:CFSetCreate
   fun:_GLOBAL__sub_I_CFSocketStream.c
   fun:_ZN16ImageLoaderMachO18doModInitFunctionsERKN11ImageLoader11LinkContextE
   fun:_ZN16ImageLoaderMachO16doInitializationERKN11ImageLoader11LinkContextE
   fun:_ZN11ImageLoader23recursiveInitializationERKNS_11LinkContextEjRNS_21InitializerTimingListERNS_15UninitedUpwardsE
   fun:_ZN11ImageLoader23recursiveInitializationERKNS_11LinkContextEjRNS_21InitializerTimingListERNS_15UninitedUpwardsE
   fun:_ZN11ImageLoader23recursiveInitializationERKNS_11LinkContextEjRNS_21InitializerTimingListERNS_15UninitedUpwardsE
   fun:_ZN11ImageLoader23recursiveInitializationERKNS_11LinkContextEjRNS_21InitializerTimingListERNS_15UninitedUpwardsE
}
{
   <insert_a_suppression_name_here>
   Memcheck:Leak
   match-leak-kinds: possible
   fun:malloc_zone_calloc
   fun:NXCreateMapTable
   fun:_ZL12realizeClassP10objc_class
   fun:objc_release
   fun:_object_remove_assocations
   fun:__CFInitialize
   fun:_ZN16ImageLoaderMachO11doImageInitERKN11ImageLoader11LinkContextE
   fun:_ZN16ImageLoaderMachO16doInitializationERKN11ImageLoader11LinkContextE
   fun:_ZN11ImageLoader23recursiveInitializationERKNS_11LinkContextEjRNS_21InitializerTimingListERNS_15UninitedUpwardsE
   fun:_ZN11ImageLoader23recursiveInitializationERKNS_11LinkContextEjRNS_21InitializerTimingListERNS_15UninitedUpwardsE
   fun:_ZN11ImageLoader23recursiveInitializationERKNS_11LinkContextEjRNS_21InitializerTimingListERNS_15UninitedUpwardsE
   fun:_ZN11ImageLoader23recursiveInitializationERKNS_11LinkContextEjRNS_21InitializerTimingListERNS_15UninitedUpwardsE
}
{
   <insert_a_suppression_name_here>
   Memcheck:Leak
   match-leak-kinds: indirect
   fun:malloc_zone_malloc
   fun:__CFBasicHashRehash
   fun:CFSetCreate
   fun:_GLOBAL__sub_I_NetConnection.cpp
   fun:_ZN16ImageLoaderMachO18doModInitFunctionsERKN11ImageLoader11LinkContextE
   fun:_ZN16ImageLoaderMachO16doInitializationERKN11ImageLoader11LinkContextE
   fun:_ZN11ImageLoader23recursiveInitializationERKNS_11LinkContextEjRNS_21InitializerTimingListERNS_15UninitedUpwardsE
   fun:_ZN11ImageLoader23recursiveInitializationERKNS_11LinkContextEjRNS_21InitializerTimingListERNS_15UninitedUpwardsE
   fun:_ZN11ImageLoader23recursiveInitializationERKNS_11LinkContextEjRNS_21InitializerTimingListERNS_15UninitedUpwardsE
   fun:_ZN11ImageLoader23recursiveInitializationERKNS_11LinkContextEjRNS_21InitializerTimingListERNS_15UninitedUpwardsE
   fun:_ZN11ImageLoader23recursiveInitializationERKNS_11LinkContextEjRNS_21InitializerTimingListERNS_15UninitedUpwardsE
   fun:_ZN11ImageLoader23recursiveInitializationERKNS_11LinkContextEjRNS_21InitializerTimingListERNS_15UninitedUpwardsE
}
{
   <insert_a_suppression_name_here>
   Memcheck:Leak
   match-leak-kinds: definite
   fun:malloc_zone_malloc
   fun:_CFRuntimeCreateInstance
   fun:CFBasicHashCreate
   fun:__CFSetCreateGeneric
   fun:CFSetCreate
   fun:_GLOBAL__sub_I_URLCredentialOAuth1.cpp
   fun:_ZN16ImageLoaderMachO18doModInitFunctionsERKN11ImageLoader11LinkContextE
   fun:_ZN16ImageLoaderMachO16doInitializationERKN11ImageLoader11LinkContextE
   fun:_ZN11ImageLoader23recursiveInitializationERKNS_11LinkContextEjRNS_21InitializerTimingListERNS_15UninitedUpwardsE
   fun:_ZN11ImageLoader23recursiveInitializationERKNS_11LinkContextEjRNS_21InitializerTimingListERNS_15UninitedUpwardsE
   fun:_ZN11ImageLoader23recursiveInitializationERKNS_11LinkContextEjRNS_21InitializerTimingListERNS_15UninitedUpwardsE
   fun:_ZN11ImageLoader23recursiveInitializationERKNS_11LinkContextEjRNS_21InitializerTimingListERNS_15UninitedUpwardsE
}
{
   <insert_a_suppression_name_here>
   Memcheck:Leak
   match-leak-kinds: definite
   fun:malloc
   fun:strdup
   fun:_CFProcessPath
   fun:__CFInitialize
   fun:_ZN16ImageLoaderMachO11doImageInitERKN11ImageLoader11LinkContextE
   fun:_ZN16ImageLoaderMachO16doInitializationERKN11ImageLoader11LinkContextE
   fun:_ZN11ImageLoader23recursiveInitializationERKNS_11LinkContextEjRNS_21InitializerTimingListERNS_15UninitedUpwardsE
   fun:_ZN11ImageLoader23recursiveInitializationERKNS_11LinkContextEjRNS_21InitializerTimingListERNS_15UninitedUpwardsE
   fun:_ZN11ImageLoader23recursiveInitializationERKNS_11LinkContextEjRNS_21InitializerTimingListERNS_15UninitedUpwardsE
   fun:_ZN11ImageLoader23recursiveInitializationERKNS_11LinkContextEjRNS_21InitializerTimingListERNS_15UninitedUpwardsE
   fun:_ZN11ImageLoader23recursiveInitializationERKNS_11LinkContextEjRNS_21InitializerTimingListERNS_15UninitedUpwardsE
   fun:_ZN11ImageLoader23recursiveInitializationERKNS_11LinkContextEjRNS_21InitializerTimingListERNS_15UninitedUpwardsE
}
{
   <insert_a_suppression_name_here>
   Memcheck:Leak
   match-leak-kinds: definite
   fun:malloc_zone_malloc
   fun:_CFRuntimeCreateInstance
   fun:CFBasicHashCreate
   fun:__CFSetCreateGeneric
   fun:CFSetCreate
   fun:_GLOBAL__sub_I_HTTPAuthentication.cpp
   fun:_ZN16ImageLoaderMachO18doModInitFunctionsERKN11ImageLoader11LinkContextE
   fun:_ZN16ImageLoaderMachO16doInitializationERKN11ImageLoader11LinkContextE
   fun:_ZN11ImageLoader23recursiveInitializationERKNS_11LinkContextEjRNS_21InitializerTimingListERNS_15UninitedUpwardsE
   fun:_ZN11ImageLoader23recursiveInitializationERKNS_11LinkContextEjRNS_21InitializerTimingListERNS_15UninitedUpwardsE
   fun:_ZN11ImageLoader23recursiveInitializationERKNS_11LinkContextEjRNS_21InitializerTimingListERNS_15UninitedUpwardsE
   fun:_ZN11ImageLoader23recursiveInitializationERKNS_11LinkContextEjRNS_21InitializerTimingListERNS_15UninitedUpwardsE
}
{
   <insert_a_suppression_name_here>
   Memcheck:Leak
   match-leak-kinds: indirect
   fun:malloc_zone_malloc
   fun:__CFBasicHashRehash
   fun:CFSetCreate
   fun:_GLOBAL__sub_I_SSPDYStream.cpp
   fun:_ZN16ImageLoaderMachO18doModInitFunctionsERKN11ImageLoader11LinkContextE
   fun:_ZN16ImageLoaderMachO16doInitializationERKN11ImageLoader11LinkContextE
   fun:_ZN11ImageLoader23recursiveInitializationERKNS_11LinkContextEjRNS_21InitializerTimingListERNS_15UninitedUpwardsE
   fun:_ZN11ImageLoader23recursiveInitializationERKNS_11LinkContextEjRNS_21InitializerTimingListERNS_15UninitedUpwardsE
   fun:_ZN11ImageLoader23recursiveInitializationERKNS_11LinkContextEjRNS_21InitializerTimingListERNS_15UninitedUpwardsE
   fun:_ZN11ImageLoader23recursiveInitializationERKNS_11LinkContextEjRNS_21InitializerTimingListERNS_15UninitedUpwardsE
   fun:_ZN11ImageLoader23recursiveInitializationERKNS_11LinkContextEjRNS_21InitializerTimingListERNS_15UninitedUpwardsE
   fun:_ZN11ImageLoader23recursiveInitializationERKNS_11LinkContextEjRNS_21InitializerTimingListERNS_15UninitedUpwardsE
}
{
   <insert_a_suppression_name_here>
   Memcheck:Leak
   match-leak-kinds: definite
   fun:malloc_zone_malloc
   fun:_CFRuntimeCreateInstance
   fun:CFBasicHashCreate
   fun:__CFSetCreateGeneric
   fun:CFSetCreate
   fun:_GLOBAL__sub_I_URLCredentialServerTrust.cpp
   fun:_ZN16ImageLoaderMachO18doModInitFunctionsERKN11ImageLoader11LinkContextE
   fun:_ZN16ImageLoaderMachO16doInitializationERKN11ImageLoader11LinkContextE
   fun:_ZN11ImageLoader23recursiveInitializationERKNS_11LinkContextEjRNS_21InitializerTimingListERNS_15UninitedUpwardsE
   fun:_ZN11ImageLoader23recursiveInitializationERKNS_11LinkContextEjRNS_21InitializerTimingListERNS_15UninitedUpwardsE
   fun:_ZN11ImageLoader23recursiveInitializationERKNS_11LinkContextEjRNS_21InitializerTimingListERNS_15UninitedUpwardsE
   fun:_ZN11ImageLoader23recursiveInitializationERKNS_11LinkContextEjRNS_21InitializerTimingListERNS_15UninitedUpwardsE
}
{
   <insert_a_suppression_name_here>
   Memcheck:Leak
   match-leak-kinds: reachable
   fun:calloc
   fun:_class_getNonMetaClass
   fun:lookUpImpOrForward
   fun:objc_msgSendSuper2_stret
   fun:objc_retain
   fun:_ZL16attachCategoriesP10objc_classP26locstamped_category_list_tb
   fun:_ZN12_GLOBAL__N_119AutoreleasePoolPage3popEPv
   fun:-[NSThread init]
   fun:____NSThreads_block_invoke
   fun:_dispatch_client_callout
   fun:dispatch_once_f
   fun:_NSThreadGet0
}
{
   <insert_a_suppression_name_here>
   Memcheck:Leak
   match-leak-kinds: indirect
   fun:malloc_zone_malloc
   fun:__CFBasicHashRehash
   fun:CFSetCreate
   fun:_GLOBAL__sub_I_URLProtocolClient.cpp
   fun:_ZN16ImageLoaderMachO18doModInitFunctionsERKN11ImageLoader11LinkContextE
   fun:_ZN16ImageLoaderMachO16doInitializationERKN11ImageLoader11LinkContextE
   fun:_ZN11ImageLoader23recursiveInitializationERKNS_11LinkContextEjRNS_21InitializerTimingListERNS_15UninitedUpwardsE
   fun:_ZN11ImageLoader23recursiveInitializationERKNS_11LinkContextEjRNS_21InitializerTimingListERNS_15UninitedUpwardsE
   fun:_ZN11ImageLoader23recursiveInitializationERKNS_11LinkContextEjRNS_21InitializerTimingListERNS_15UninitedUpwardsE
   fun:_ZN11ImageLoader23recursiveInitializationERKNS_11LinkContextEjRNS_21InitializerTimingListERNS_15UninitedUpwardsE
   fun:_ZN11ImageLoader23recursiveInitializationERKNS_11LinkContextEjRNS_21InitializerTimingListERNS_15UninitedUpwardsE
   fun:_ZN11ImageLoader23recursiveInitializationERKNS_11LinkContextEjRNS_21InitializerTimingListERNS_15UninitedUpwardsE
}
{
   <insert_a_suppression_name_here>
   Memcheck:Leak
   match-leak-kinds: definite
   fun:malloc_zone_malloc
   fun:_CFRuntimeCreateInstance
   fun:CFBasicHashCreate
   fun:__CFSetCreateGeneric
   fun:CFSetCreate
   fun:_GLOBAL__sub_I_SHTTP2ConnectionCacheEntry.cpp
   fun:_ZN16ImageLoaderMachO18doModInitFunctionsERKN11ImageLoader11LinkContextE
   fun:_ZN16ImageLoaderMachO16doInitializationERKN11ImageLoader11LinkContextE
   fun:_ZN11ImageLoader23recursiveInitializationERKNS_11LinkContextEjRNS_21InitializerTimingListERNS_15UninitedUpwardsE
   fun:_ZN11ImageLoader23recursiveInitializationERKNS_11LinkContextEjRNS_21InitializerTimingListERNS_15UninitedUpwardsE
   fun:_ZN11ImageLoader23recursiveInitializationERKNS_11LinkContextEjRNS_21InitializerTimingListERNS_15UninitedUpwardsE
   fun:_ZN11ImageLoader23recursiveInitializationERKNS_11LinkContextEjRNS_21InitializerTimingListERNS_15UninitedUpwardsE
}
{
   <insert_a_suppression_name_here>
   Memcheck:Leak
   match-leak-kinds: definite
   fun:malloc_zone_malloc
   fun:_CFRuntimeCreateInstance
   fun:CFBasicHashCreate
   fun:__CFSetCreateGeneric
   fun:CFSetCreate
   fun:_GLOBAL__sub_I_SessionTask.mm
   fun:_ZN16ImageLoaderMachO18doModInitFunctionsERKN11ImageLoader11LinkContextE
   fun:_ZN16ImageLoaderMachO16doInitializationERKN11ImageLoader11LinkContextE
   fun:_ZN11ImageLoader23recursiveInitializationERKNS_11LinkContextEjRNS_21InitializerTimingListERNS_15UninitedUpwardsE
   fun:_ZN11ImageLoader23recursiveInitializationERKNS_11LinkContextEjRNS_21InitializerTimingListERNS_15UninitedUpwardsE
   fun:_ZN11ImageLoader23recursiveInitializationERKNS_11LinkContextEjRNS_21InitializerTimingListERNS_15UninitedUpwardsE
   fun:_ZN11ImageLoader23recursiveInitializationERKNS_11LinkContextEjRNS_21InitializerTimingListERNS_15UninitedUpwardsE
}
{
   <insert_a_suppression_name_here>
   Memcheck:Leak
   match-leak-kinds: indirect
   fun:malloc_zone_malloc
   fun:__CFBasicHashRehash
   fun:CFSetCreate
   fun:_GLOBAL__sub_I_CFURLProtocolUtilities.cpp
   fun:_ZN16ImageLoaderMachO18doModInitFunctionsERKN11ImageLoader11LinkContextE
   fun:_ZN16ImageLoaderMachO16doInitializationERKN11ImageLoader11LinkContextE
   fun:_ZN11ImageLoader23recursiveInitializationERKNS_11LinkContextEjRNS_21InitializerTimingListERNS_15UninitedUpwardsE
   fun:_ZN11ImageLoader23recursiveInitializationERKNS_11LinkContextEjRNS_21InitializerTimingListERNS_15UninitedUpwardsE
   fun:_ZN11ImageLoader23recursiveInitializationERKNS_11LinkContextEjRNS_21InitializerTimingListERNS_15UninitedUpwardsE
   fun:_ZN11ImageLoader23recursiveInitializationERKNS_11LinkContextEjRNS_21InitializerTimingListERNS_15UninitedUpwardsE
   fun:_ZN11ImageLoader23recursiveInitializationERKNS_11LinkContextEjRNS_21InitializerTimingListERNS_15UninitedUpwardsE
   fun:_ZN11ImageLoader23recursiveInitializationERKNS_11LinkContextEjRNS_21InitializerTimingListERNS_15UninitedUpwardsE
}
{
   <insert_a_suppression_name_here>
   Memcheck:Leak
   match-leak-kinds: indirect
   fun:malloc_zone_malloc
   fun:__CFBasicHashRehash
   fun:CFSetCreate
   fun:_GLOBAL__sub_I_HTTP2Stream.cpp
   fun:_ZN16ImageLoaderMachO18doModInitFunctionsERKN11ImageLoader11LinkContextE
   fun:_ZN16ImageLoaderMachO16doInitializationERKN11ImageLoader11LinkContextE
   fun:_ZN11ImageLoader23recursiveInitializationERKNS_11LinkContextEjRNS_21InitializerTimingListERNS_15UninitedUpwardsE
   fun:_ZN11ImageLoader23recursiveInitializationERKNS_11LinkContextEjRNS_21InitializerTimingListERNS_15UninitedUpwardsE
   fun:_ZN11ImageLoader23recursiveInitializationERKNS_11LinkContextEjRNS_21InitializerTimingListERNS_15UninitedUpwardsE
   fun:_ZN11ImageLoader23recursiveInitializationERKNS_11LinkContextEjRNS_21InitializerTimingListERNS_15UninitedUpwardsE
   fun:_ZN11ImageLoader23recursiveInitializationERKNS_11LinkContextEjRNS_21InitializerTimingListERNS_15UninitedUpwardsE
   fun:_ZN11ImageLoader23recursiveInitializationERKNS_11LinkContextEjRNS_21InitializerTimingListERNS_15UninitedUpwardsE
}
{
   <insert_a_suppression_name_here>
   Memcheck:Leak
   match-leak-kinds: definite
   fun:malloc_zone_malloc
   fun:__CFUniCharGetUnicodePropertyDataForPlane_block_invoke
   fun:_dispatch_client_callout
   fun:dispatch_once_f
   fun:CFUniCharGetNumberOfPlanesForUnicodePropertyData
   fun:__CFUniCharLoadDecompositionTable
   fun:CFUniCharDecompose
   fun:CFStringGetFileSystemRepresentation
   fun:_CFURLCreateWithFileSystemPath
   fun:_CFBundleCopyBundleURLForExecutableURL
   fun:_CFBundleGetMainBundleAlreadyLocked
   fun:CFBundleGetMainBundle
}
{
   <insert_a_suppression_name_here>
   Memcheck:Leak
   match-leak-kinds: reachable
   fun:calloc
   fun:_class_getNonMetaClass
   fun:lookUpImpOrForward
   fun:objc_msgSendSuper_stret
   fun:class_createInstance
   fun:_ZL13addNamedClassP10objc_classPKcS0_
   fun:objc_registerClassPair
   fun:-[NSString(NSCFAdditions) _createSubstringWithRange:]
   fun:CFStringCreateWithSubstring
   fun:CFURLCreateStringWithFileSystemPath
   fun:CFURLGetFileSystemRepresentation
   fun:_CFBundleGetBundleVersionForURL
}
{
   <insert_a_suppression_name_here>
   Memcheck:Leak
   match-leak-kinds: indirect
   fun:malloc_zone_malloc
   fun:__CFBasicHashRehash
   fun:CFSetCreate
   fun:_GLOBAL__sub_I_HTTP2Connection.cpp
   fun:_ZN16ImageLoaderMachO18doModInitFunctionsERKN11ImageLoader11LinkContextE
   fun:_ZN16ImageLoaderMachO16doInitializationERKN11ImageLoader11LinkContextE
   fun:_ZN11ImageLoader23recursiveInitializationERKNS_11LinkContextEjRNS_21InitializerTimingListERNS_15UninitedUpwardsE
   fun:_ZN11ImageLoader23recursiveInitializationERKNS_11LinkContextEjRNS_21InitializerTimingListERNS_15UninitedUpwardsE
   fun:_ZN11ImageLoader23recursiveInitializationERKNS_11LinkContextEjRNS_21InitializerTimingListERNS_15UninitedUpwardsE
   fun:_ZN11ImageLoader23recursiveInitializationERKNS_11LinkContextEjRNS_21InitializerTimingListERNS_15UninitedUpwardsE
   fun:_ZN11ImageLoader23recursiveInitializationERKNS_11LinkContextEjRNS_21InitializerTimingListERNS_15UninitedUpwardsE
   fun:_ZN11ImageLoader23recursiveInitializationERKNS_11LinkContextEjRNS_21InitializerTimingListERNS_15UninitedUpwardsE
}
{
   <insert_a_suppression_name_here>
   Memcheck:Cond
   fun:_ZN16ImageLoaderMachO18validateFirstPagesEPK21linkedit_data_commandiPKhmxRKN11ImageLoader11LinkContextE
   fun:_ZN26ImageLoaderMachOCompressed19instantiateFromFileEPKciPKhmyyRK4statjjPK21linkedit_data_commandPK23encryption_info_commandRKN11ImageLoader11LinkContextE
   fun:_ZN16ImageLoaderMachO19instantiateFromFileEPKciPKhyyRK4statRKN11ImageLoader11LinkContextE
   fun:_ZN4dyldL10loadPhase6EiRK4statPKcRKNS_11LoadContextE
   fun:_ZN4dyldL10loadPhase5EPKcS1_RKNS_11LoadContextEPNSt3__16vectorIS1_NS5_9allocatorIS1_EEEE
   fun:_ZN4dyldL10loadPhase4EPKcS1_RKNS_11LoadContextEPNSt3__16vectorIS1_NS5_9allocatorIS1_EEEE
   fun:_ZN4dyldL10loadPhase3EPKcS1_RKNS_11LoadContextEPNSt3__16vectorIS1_NS5_9allocatorIS1_EEEE
   fun:_ZN4dyldL10loadPhase1EPKcS1_RKNS_11LoadContextEPNSt3__16vectorIS1_NS5_9allocatorIS1_EEEE
   fun:_ZN4dyldL10loadPhase0EPKcS1_RKNS_11LoadContextEPNSt3__16vectorIS1_NS5_9allocatorIS1_EEEE
   fun:_ZN4dyld4loadEPKcRKNS_11LoadContextE
   fun:_ZN4dyldL14libraryLocatorEPKcbS1_PKN11ImageLoader10RPathChainE
   fun:_ZN11ImageLoader22recursiveLoadLibrariesERKNS_11LinkContextEbRKNS_10RPathChainE
}
{
   <insert_a_suppression_name_here>
   Memcheck:Leak
   match-leak-kinds: possible
   fun:realloc
   fun:_ZN13list_array_ttI8method_t13method_list_tE11attachListsEPKPS1_j
   fun:_read_images
   fun:map_images_nolock
   fun:map_2_images
   fun:_ZN4dyldL18notifyBatchPartialE17dyld_image_statesbPFPKcS0_jPK15dyld_image_infoE
   fun:_ZN4dyld36registerImageStateBatchChangeHandlerE17dyld_image_statesPFPKcS0_jPK15dyld_image_infoE
   fun:dyld_register_image_state_change_handler
   fun:_objc_init
   fun:_os_object_init
   fun:libdispatch_init
   fun:libSystem_initializer
}
{
   <insert_a_suppression_name_here>
   Memcheck:Leak
   match-leak-kinds: definite
   fun:malloc_zone_malloc
   fun:_CFRuntimeCreateInstance
   fun:CFBasicHashCreate
   fun:__CFSetCreateGeneric
   fun:CFSetCreate
   fun:_GLOBAL__sub_I_STube.cpp
   fun:_ZN16ImageLoaderMachO18doModInitFunctionsERKN11ImageLoader11LinkContextE
   fun:_ZN16ImageLoaderMachO16doInitializationERKN11ImageLoader11LinkContextE
   fun:_ZN11ImageLoader23recursiveInitializationERKNS_11LinkContextEjRNS_21InitializerTimingListERNS_15UninitedUpwardsE
   fun:_ZN11ImageLoader23recursiveInitializationERKNS_11LinkContextEjRNS_21InitializerTimingListERNS_15UninitedUpwardsE
   fun:_ZN11ImageLoader23recursiveInitializationERKNS_11LinkContextEjRNS_21InitializerTimingListERNS_15UninitedUpwardsE
   fun:_ZN11ImageLoader23recursiveInitializationERKNS_11LinkContextEjRNS_21InitializerTimingListERNS_15UninitedUpwardsE
}
{
   <insert_a_suppression_name_here>
   Memcheck:Leak
   match-leak-kinds: indirect
   fun:malloc_zone_malloc
   fun:__CFBasicHashRehash
   fun:CFSetCreate
   fun:_GLOBAL__sub_I_SHTTPConnectionCache.cpp
   fun:_ZN16ImageLoaderMachO18doModInitFunctionsERKN11ImageLoader11LinkContextE
   fun:_ZN16ImageLoaderMachO16doInitializationERKN11ImageLoader11LinkContextE
   fun:_ZN11ImageLoader23recursiveInitializationERKNS_11LinkContextEjRNS_21InitializerTimingListERNS_15UninitedUpwardsE
   fun:_ZN11ImageLoader23recursiveInitializationERKNS_11LinkContextEjRNS_21InitializerTimingListERNS_15UninitedUpwardsE
   fun:_ZN11ImageLoader23recursiveInitializationERKNS_11LinkContextEjRNS_21InitializerTimingListERNS_15UninitedUpwardsE
   fun:_ZN11ImageLoader23recursiveInitializationERKNS_11LinkContextEjRNS_21InitializerTimingListERNS_15UninitedUpwardsE
   fun:_ZN11ImageLoader23recursiveInitializationERKNS_11LinkContextEjRNS_21InitializerTimingListERNS_15UninitedUpwardsE
   fun:_ZN11ImageLoader23recursiveInitializationERKNS_11LinkContextEjRNS_21InitializerTimingListERNS_15UninitedUpwardsE
}
{
   <insert_a_suppression_name_here>
   Memcheck:Leak
   match-leak-kinds: reachable
   fun:calloc
   fun:_ZL12_NXMapMemberP11_NXMapTablePKvPPv
   fun:cache_getImp
   fun:_Z28_getObjc2NonlazyCategoryListPK14mach_header_64Pm
   fun:_ZL16attachCategoriesP10objc_classP26locstamped_category_list_tb
   fun:+[NSMutableString initialize]
   fun:objc_msgSend_fpret
   fun:_Z28_getObjc2NonlazyCategoryListPK14mach_header_64Pm
   fun:_ZL16attachCategoriesP10objc_classP26locstamped_category_list_tb
   fun:+[NSMutableString initialize]
   fun:objc_msgSend_fpret
   fun:_Z28_getObjc2NonlazyCategoryListPK14mach_header_64Pm
}
{
   <insert_a_suppression_name_here>
   Memcheck:Leak
   match-leak-kinds: indirect
   fun:malloc_zone_malloc
   fun:__CFBasicHashRehash
   fun:CFSetCreate
   fun:_GLOBAL__sub_I_SPDYStream.cpp
   fun:_ZN16ImageLoaderMachO18doModInitFunctionsERKN11ImageLoader11LinkContextE
   fun:_ZN16ImageLoaderMachO16doInitializationERKN11ImageLoader11LinkContextE
   fun:_ZN11ImageLoader23recursiveInitializationERKNS_11LinkContextEjRNS_21InitializerTimingListERNS_15UninitedUpwardsE
   fun:_ZN11ImageLoader23recursiveInitializationERKNS_11LinkContextEjRNS_21InitializerTimingListERNS_15UninitedUpwardsE
   fun:_ZN11ImageLoader23recursiveInitializationERKNS_11LinkContextEjRNS_21InitializerTimingListERNS_15UninitedUpwardsE
   fun:_ZN11ImageLoader23recursiveInitializationERKNS_11LinkContextEjRNS_21InitializerTimingListERNS_15UninitedUpwardsE
   fun:_ZN11ImageLoader23recursiveInitializationERKNS_11LinkContextEjRNS_21InitializerTimingListERNS_15UninitedUpwardsE
   fun:_ZN11ImageLoader23recursiveInitializationERKNS_11LinkContextEjRNS_21InitializerTimingListERNS_15UninitedUpwardsE
}
{
   <insert_a_suppression_name_here>
   Memcheck:Leak
   match-leak-kinds: definite
   fun:malloc_zone_malloc
   fun:_CFRuntimeCreateInstance
   fun:CFBasicHashCreate
   fun:__CFSetCreateGeneric
   fun:CFSetCreate
   fun:_GLOBAL__sub_I_CFURLProtectionSpace.c
   fun:_ZN16ImageLoaderMachO18doModInitFunctionsERKN11ImageLoader11LinkContextE
   fun:_ZN16ImageLoaderMachO16doInitializationERKN11ImageLoader11LinkContextE
   fun:_ZN11ImageLoader23recursiveInitializationERKNS_11LinkContextEjRNS_21InitializerTimingListERNS_15UninitedUpwardsE
   fun:_ZN11ImageLoader23recursiveInitializationERKNS_11LinkContextEjRNS_21InitializerTimingListERNS_15UninitedUpwardsE
   fun:_ZN11ImageLoader23recursiveInitializationERKNS_11LinkContextEjRNS_21InitializerTimingListERNS_15UninitedUpwardsE
   fun:_ZN11ImageLoader23recursiveInitializationERKNS_11LinkContextEjRNS_21InitializerTimingListERNS_15UninitedUpwardsE
}
{
   <insert_a_suppression_name_here>
   Memcheck:Leak
   match-leak-kinds: reachable
   fun:calloc
   fun:_ZL12_NXMapMemberP11_NXMapTablePKvPPv
   fun:_ZL11_mapStrHashP11_NXMapTablePKv
   fun:objc_release
   fun:__26+[NSObject(NSObject) load]_block_invoke
   fun:_dispatch_client_callout
   fun:dispatch_once_f
   fun:+[NSObject(NSObject) load]
   fun:cache_fill
   fun:NXMapRemove
   fun:_ZN4dyldL12notifySingleE17dyld_image_statesPK11ImageLoader
   fun:_ZN11ImageLoader23recursiveInitializationERKNS_11LinkContextEjRNS_21InitializerTimingListERNS_15UninitedUpwardsE
}
{
   <insert_a_suppression_name_here>
   Memcheck:Leak
   match-leak-kinds: indirect
   fun:malloc_zone_malloc
   fun:__CFBasicHashRehash
   fun:CFSetCreate
   fun:_GLOBAL__sub_I_HTTPWriteFilter.cpp
   fun:_ZN16ImageLoaderMachO18doModInitFunctionsERKN11ImageLoader11LinkContextE
   fun:_ZN16ImageLoaderMachO16doInitializationERKN11ImageLoader11LinkContextE
   fun:_ZN11ImageLoader23recursiveInitializationERKNS_11LinkContextEjRNS_21InitializerTimingListERNS_15UninitedUpwardsE
   fun:_ZN11ImageLoader23recursiveInitializationERKNS_11LinkContextEjRNS_21InitializerTimingListERNS_15UninitedUpwardsE
   fun:_ZN11ImageLoader23recursiveInitializationERKNS_11LinkContextEjRNS_21InitializerTimingListERNS_15UninitedUpwardsE
   fun:_ZN11ImageLoader23recursiveInitializationERKNS_11LinkContextEjRNS_21InitializerTimingListERNS_15UninitedUpwardsE
   fun:_ZN11ImageLoader23recursiveInitializationERKNS_11LinkContextEjRNS_21InitializerTimingListERNS_15UninitedUpwardsE
   fun:_ZN11ImageLoader23recursiveInitializationERKNS_11LinkContextEjRNS_21InitializerTimingListERNS_15UninitedUpwardsE
}
{
   <insert_a_suppression_name_here>
   Memcheck:Leak
   match-leak-kinds: reachable
   fun:calloc
   fun:_ZL12_NXMapMemberP11_NXMapTablePKvPPv
   fun:hasLoadMethods
   fun:_ZL16attachCategoriesP10objc_classP26locstamped_category_list_tb
   fun:_NSToDoAtProcessStart
   fun:_NSInitializePlatform
   fun:cache_fill
   fun:NXMapRemove
   fun:_ZN4dyldL12notifySingleE17dyld_image_statesPK11ImageLoader
   fun:_ZN11ImageLoader23recursiveInitializationERKNS_11LinkContextEjRNS_21InitializerTimingListERNS_15UninitedUpwardsE
   fun:_ZN11ImageLoader23recursiveInitializationERKNS_11LinkContextEjRNS_21InitializerTimingListERNS_15UninitedUpwardsE
   fun:_ZN11ImageLoader23recursiveInitializationERKNS_11LinkContextEjRNS_21InitializerTimingListERNS_15UninitedUpwardsE
}
{
   <insert_a_suppression_name_here>
   Memcheck:Leak
   match-leak-kinds: possible
   fun:calloc
   fun:_ZL12_NXMapMemberP11_NXMapTablePKvPPv
   fun:cache_getImp
   fun:_Z28_getObjc2NonlazyCategoryListPK14mach_header_64Pm
   fun:_ZL16attachCategoriesP10objc_classP26locstamped_category_list_tb
   fun:CFArrayCreate
   fun:__CFInitialize
   fun:_ZN16ImageLoaderMachO11doImageInitERKN11ImageLoader11LinkContextE
   fun:_ZN16ImageLoaderMachO16doInitializationERKN11ImageLoader11LinkContextE
   fun:_ZN11ImageLoader23recursiveInitializationERKNS_11LinkContextEjRNS_21InitializerTimingListERNS_15UninitedUpwardsE
   fun:_ZN11ImageLoader23recursiveInitializationERKNS_11LinkContextEjRNS_21InitializerTimingListERNS_15UninitedUpwardsE
   fun:_ZN11ImageLoader23recursiveInitializationERKNS_11LinkContextEjRNS_21InitializerTimingListERNS_15UninitedUpwardsE
}
{
   <insert_a_suppression_name_here>
   Memcheck:Leak
   match-leak-kinds: reachable
   fun:calloc
   fun:_ZL12_NXMapMemberP11_NXMapTablePKvPPv
   fun:hasLoadMethods
   fun:_ZL16attachCategoriesP10objc_classP26locstamped_category_list_tb
   fun:+[NSMutableString initialize]
   fun:objc_msgSend_fpret
   fun:_Z28_getObjc2NonlazyCategoryListPK14mach_header_64Pm
   fun:_ZL16attachCategoriesP10objc_classP26locstamped_category_list_tb
   fun:+[NSMutableString initialize]
   fun:objc_msgSend_fpret
   fun:_Z28_getObjc2NonlazyCategoryListPK14mach_header_64Pm
   fun:_ZL16attachCategoriesP10objc_classP26locstamped_category_list_tb
}
{
   <insert_a_suppression_name_here>
   Memcheck:Leak
   match-leak-kinds: indirect
   fun:malloc_zone_malloc
   fun:__CFBasicHashRehash
   fun:CFSetCreate
   fun:_GLOBAL__sub_I_HTTPProtocol.cpp
   fun:_ZN16ImageLoaderMachO18doModInitFunctionsERKN11ImageLoader11LinkContextE
   fun:_ZN16ImageLoaderMachO16doInitializationERKN11ImageLoader11LinkContextE
   fun:_ZN11ImageLoader23recursiveInitializationERKNS_11LinkContextEjRNS_21InitializerTimingListERNS_15UninitedUpwardsE
   fun:_ZN11ImageLoader23recursiveInitializationERKNS_11LinkContextEjRNS_21InitializerTimingListERNS_15UninitedUpwardsE
   fun:_ZN11ImageLoader23recursiveInitializationERKNS_11LinkContextEjRNS_21InitializerTimingListERNS_15UninitedUpwardsE
   fun:_ZN11ImageLoader23recursiveInitializationERKNS_11LinkContextEjRNS_21InitializerTimingListERNS_15UninitedUpwardsE
   fun:_ZN11ImageLoader23recursiveInitializationERKNS_11LinkContextEjRNS_21InitializerTimingListERNS_15UninitedUpwardsE
   fun:_ZN11ImageLoader23recursiveInitializationERKNS_11LinkContextEjRNS_21InitializerTimingListERNS_15UninitedUpwardsE
}
{
   <insert_a_suppression_name_here>
   Memcheck:Leak
   match-leak-kinds: definite
   fun:malloc_zone_malloc
   fun:_CFRuntimeCreateInstance
   fun:CFBasicHashCreate
   fun:__CFSetCreateGeneric
   fun:CFSetCreate
   fun:_GLOBAL__sub_I_URLCredentialInternetPassword.cpp
   fun:_ZN16ImageLoaderMachO18doModInitFunctionsERKN11ImageLoader11LinkContextE
   fun:_ZN16ImageLoaderMachO16doInitializationERKN11ImageLoader11LinkContextE
   fun:_ZN11ImageLoader23recursiveInitializationERKNS_11LinkContextEjRNS_21InitializerTimingListERNS_15UninitedUpwardsE
   fun:_ZN11ImageLoader23recursiveInitializationERKNS_11LinkContextEjRNS_21InitializerTimingListERNS_15UninitedUpwardsE
   fun:_ZN11ImageLoader23recursiveInitializationERKNS_11LinkContextEjRNS_21InitializerTimingListERNS_15UninitedUpwardsE
   fun:_ZN11ImageLoader23recursiveInitializationERKNS_11LinkContextEjRNS_21InitializerTimingListERNS_15UninitedUpwardsE
}
{
   <insert_a_suppression_name_here>
   Memcheck:Leak
   match-leak-kinds: possible
   fun:calloc
   fun:_ZL12_NXMapMemberP11_NXMapTablePKvPPv
   fun:cache_getImp
   fun:_Z28_getObjc2NonlazyCategoryListPK14mach_header_64Pm
   fun:_ZL16attachCategoriesP10objc_classP26locstamped_category_list_tb
   fun:-[NSThread init]
   fun:____NSThreads_block_invoke
   fun:_dispatch_client_callout
   fun:dispatch_once_f
   fun:_NSThreadGet0
   fun:_NSInitializePlatform
   fun:cache_fill
}
{
   <insert_a_suppression_name_here>
   Memcheck:Leak
   match-leak-kinds: reachable
   fun:malloc
   fun:_ZN12_GLOBAL__N_119AutoreleasePoolPage3popEPv
   fun:_class_getNonMetaClass
   fun:objc_msgSendSuper2_stret
   fun:objc_retain
   fun:_ZL16attachCategoriesP10objc_classP26locstamped_category_list_tb
   fun:_ZN12_GLOBAL__N_119AutoreleasePoolPage3popEPv
   fun:-[NSThread init]
   fun:____NSThreads_block_invoke
   fun:_dispatch_client_callout
   fun:dispatch_once_f
   fun:_NSThreadGet0
}
{
   <insert_a_suppression_name_here>
   Memcheck:Leak
   match-leak-kinds: reachable
   fun:malloc_zone_malloc
   fun:__CFBasicHashRehash
   fun:CFSetCreate
   fun:_GLOBAL__sub_I_CFHTTPFilter.c
   fun:_ZN16ImageLoaderMachO18doModInitFunctionsERKN11ImageLoader11LinkContextE
   fun:_ZN16ImageLoaderMachO16doInitializationERKN11ImageLoader11LinkContextE
   fun:_ZN11ImageLoader23recursiveInitializationERKNS_11LinkContextEjRNS_21InitializerTimingListERNS_15UninitedUpwardsE
   fun:_ZN11ImageLoader23recursiveInitializationERKNS_11LinkContextEjRNS_21InitializerTimingListERNS_15UninitedUpwardsE
   fun:_ZN11ImageLoader23recursiveInitializationERKNS_11LinkContextEjRNS_21InitializerTimingListERNS_15UninitedUpwardsE
   fun:_ZN11ImageLoader23recursiveInitializationERKNS_11LinkContextEjRNS_21InitializerTimingListERNS_15UninitedUpwardsE
   fun:_ZN11ImageLoader23recursiveInitializationERKNS_11LinkContextEjRNS_21InitializerTimingListERNS_15UninitedUpwardsE
   fun:_ZN11ImageLoader23recursiveInitializationERKNS_11LinkContextEjRNS_21InitializerTimingListERNS_15UninitedUpwardsE
}
{
   <insert_a_suppression_name_here>
   Memcheck:Leak
   match-leak-kinds: reachable
   fun:calloc
   fun:_ZL12_NXMapMemberP11_NXMapTablePKvPPv
   fun:_ZL11_mapStrHashP11_NXMapTablePKv
   fun:objc_release
   fun:_NSToDoAtProcessStart
   fun:_NSInitializePlatform
   fun:cache_fill
   fun:NXMapRemove
   fun:_ZN4dyldL12notifySingleE17dyld_image_statesPK11ImageLoader
   fun:_ZN11ImageLoader23recursiveInitializationERKNS_11LinkContextEjRNS_21InitializerTimingListERNS_15UninitedUpwardsE
   fun:_ZN11ImageLoader23recursiveInitializationERKNS_11LinkContextEjRNS_21InitializerTimingListERNS_15UninitedUpwardsE
   fun:_ZN11ImageLoader23recursiveInitializationERKNS_11LinkContextEjRNS_21InitializerTimingListERNS_15UninitedUpwardsE
}
{
   <insert_a_suppression_name_here>
   Memcheck:Cond
   fun:bcmp
   fun:_ZN16ImageLoaderMachO18validateFirstPagesEPK21linkedit_data_commandiPKhmxRKN11ImageLoader11LinkContextE
   fun:_ZN26ImageLoaderMachOCompressed19instantiateFromFileEPKciPKhmyyRK4statjjPK21linkedit_data_commandPK23encryption_info_commandRKN11ImageLoader11LinkContextE
   fun:_ZN16ImageLoaderMachO19instantiateFromFileEPKciPKhyyRK4statRKN11ImageLoader11LinkContextE
   fun:_ZN4dyldL10loadPhase6EiRK4statPKcRKNS_11LoadContextE
   fun:_ZN4dyldL10loadPhase5EPKcS1_RKNS_11LoadContextEPNSt3__16vectorIS1_NS5_9allocatorIS1_EEEE
   fun:_ZN4dyldL10loadPhase4EPKcS1_RKNS_11LoadContextEPNSt3__16vectorIS1_NS5_9allocatorIS1_EEEE
   fun:_ZN4dyldL10loadPhase3EPKcS1_RKNS_11LoadContextEPNSt3__16vectorIS1_NS5_9allocatorIS1_EEEE
   fun:_ZN4dyldL10loadPhase1EPKcS1_RKNS_11LoadContextEPNSt3__16vectorIS1_NS5_9allocatorIS1_EEEE
   fun:_ZN4dyldL10loadPhase0EPKcS1_RKNS_11LoadContextEPNSt3__16vectorIS1_NS5_9allocatorIS1_EEEE
   fun:_ZN4dyld4loadEPKcRKNS_11LoadContextE
   fun:_ZN4dyldL14libraryLocatorEPKcbS1_PKN11ImageLoader10RPathChainE
}
{
   <insert_a_suppression_name_here>
   Memcheck:Leak
   match-leak-kinds: possible
   fun:malloc_zone_calloc
   fun:NXCreateMapTable
   fun:_ZL12realizeClassP10objc_class
   fun:hasLoadMethods
   fun:_ZL16attachCategoriesP10objc_classP26locstamped_category_list_tb
   fun:CFArrayCreate
   fun:__CFInitialize
   fun:_ZN16ImageLoaderMachO11doImageInitERKN11ImageLoader11LinkContextE
   fun:_ZN16ImageLoaderMachO16doInitializationERKN11ImageLoader11LinkContextE
   fun:_ZN11ImageLoader23recursiveInitializationERKNS_11LinkContextEjRNS_21InitializerTimingListERNS_15UninitedUpwardsE
   fun:_ZN11ImageLoader23recursiveInitializationERKNS_11LinkContextEjRNS_21InitializerTimingListERNS_15UninitedUpwardsE
   fun:_ZN11ImageLoader23recursiveInitializationERKNS_11LinkContextEjRNS_21InitializerTimingListERNS_15UninitedUpwardsE
}
{
   <insert_a_suppression_name_here>
   Memcheck:Leak
   match-leak-kinds: indirect
   fun:malloc_zone_malloc
   fun:__CFBasicHashRehash
   fun:CFSetCreate
   fun:_GLOBAL__sub_I_LocalStreamTask.mm
   fun:_ZN16ImageLoaderMachO18doModInitFunctionsERKN11ImageLoader11LinkContextE
   fun:_ZN16ImageLoaderMachO16doInitializationERKN11ImageLoader11LinkContextE
   fun:_ZN11ImageLoader23recursiveInitializationERKNS_11LinkContextEjRNS_21InitializerTimingListERNS_15UninitedUpwardsE
   fun:_ZN11ImageLoader23recursiveInitializationERKNS_11LinkContextEjRNS_21InitializerTimingListERNS_15UninitedUpwardsE
   fun:_ZN11ImageLoader23recursiveInitializationERKNS_11LinkContextEjRNS_21InitializerTimingListERNS_15UninitedUpwardsE
   fun:_ZN11ImageLoader23recursiveInitializationERKNS_11LinkContextEjRNS_21InitializerTimingListERNS_15UninitedUpwardsE
   fun:_ZN11ImageLoader23recursiveInitializationERKNS_11LinkContextEjRNS_21InitializerTimingListERNS_15UninitedUpwardsE
   fun:_ZN11ImageLoader23recursiveInitializationERKNS_11LinkContextEjRNS_21InitializerTimingListERNS_15UninitedUpwardsE
}
{
   <insert_a_suppression_name_here>
   Memcheck:Leak
   match-leak-kinds: definite
   fun:malloc_zone_malloc
   fun:_CFRuntimeCreateInstance
   fun:CFBasicHashCreate
   fun:__CFSetCreateGeneric
   fun:CFSetCreate
   fun:_GLOBAL__sub_I_URLProtocolClient.cpp
   fun:_ZN16ImageLoaderMachO18doModInitFunctionsERKN11ImageLoader11LinkContextE
   fun:_ZN16ImageLoaderMachO16doInitializationERKN11ImageLoader11LinkContextE
   fun:_ZN11ImageLoader23recursiveInitializationERKNS_11LinkContextEjRNS_21InitializerTimingListERNS_15UninitedUpwardsE
   fun:_ZN11ImageLoader23recursiveInitializationERKNS_11LinkContextEjRNS_21InitializerTimingListERNS_15UninitedUpwardsE
   fun:_ZN11ImageLoader23recursiveInitializationERKNS_11LinkContextEjRNS_21InitializerTimingListERNS_15UninitedUpwardsE
   fun:_ZN11ImageLoader23recursiveInitializationERKNS_11LinkContextEjRNS_21InitializerTimingListERNS_15UninitedUpwardsE
}
{
   <insert_a_suppression_name_here>
   Memcheck:Leak
   match-leak-kinds: reachable
   fun:calloc
   fun:_ZL12_NXMapMemberP11_NXMapTablePKvPPv
   fun:hasLoadMethods
   fun:_ZL16attachCategoriesP10objc_classP26locstamped_category_list_tb
   fun:_NSInitializePlatform
   fun:cache_fill
   fun:NXMapRemove
   fun:_ZN4dyldL12notifySingleE17dyld_image_statesPK11ImageLoader
   fun:_ZN11ImageLoader23recursiveInitializationERKNS_11LinkContextEjRNS_21InitializerTimingListERNS_15UninitedUpwardsE
   fun:_ZN11ImageLoader23recursiveInitializationERKNS_11LinkContextEjRNS_21InitializerTimingListERNS_15UninitedUpwardsE
   fun:_ZN11ImageLoader23recursiveInitializationERKNS_11LinkContextEjRNS_21InitializerTimingListERNS_15UninitedUpwardsE
   fun:_ZN11ImageLoader23recursiveInitializationERKNS_11LinkContextEjRNS_21InitializerTimingListERNS_15UninitedUpwardsE
}
{
   <insert_a_suppression_name_here>
   Memcheck:Leak
   match-leak-kinds: reachable
   fun:calloc
   fun:_ZL12_NXMapMemberP11_NXMapTablePKvPPv
   fun:_ZL11_mapStrHashP11_NXMapTablePKv
   fun:objc_release
   fun:__CFInitialize
   fun:_ZN16ImageLoaderMachO11doImageInitERKN11ImageLoader11LinkContextE
   fun:_ZN16ImageLoaderMachO16doInitializationERKN11ImageLoader11LinkContextE
   fun:_ZN11ImageLoader23recursiveInitializationERKNS_11LinkContextEjRNS_21InitializerTimingListERNS_15UninitedUpwardsE
   fun:_ZN11ImageLoader23recursiveInitializationERKNS_11LinkContextEjRNS_21InitializerTimingListERNS_15UninitedUpwardsE
   fun:_ZN11ImageLoader23recursiveInitializationERKNS_11LinkContextEjRNS_21InitializerTimingListERNS_15UninitedUpwardsE
   fun:_ZN11ImageLoader23recursiveInitializationERKNS_11LinkContextEjRNS_21InitializerTimingListERNS_15UninitedUpwardsE
   fun:_ZN11ImageLoader23recursiveInitializationERKNS_11LinkContextEjRNS_21InitializerTimingListERNS_15UninitedUpwardsE
}
{
   <insert_a_suppression_name_here>
   Memcheck:Value8
   fun:bcmp
   fun:_ZN16ImageLoaderMachO18validateFirstPagesEPK21linkedit_data_commandiPKhmxRKN11ImageLoader11LinkContextE
   fun:_ZN26ImageLoaderMachOCompressed19instantiateFromFileEPKciPKhmyyRK4statjjPK21linkedit_data_commandPK23encryption_info_commandRKN11ImageLoader11LinkContextE
   fun:_ZN16ImageLoaderMachO19instantiateFromFileEPKciPKhyyRK4statRKN11ImageLoader11LinkContextE
   fun:_ZN4dyldL10loadPhase6EiRK4statPKcRKNS_11LoadContextE
   fun:_ZN4dyldL10loadPhase5EPKcS1_RKNS_11LoadContextEPNSt3__16vectorIS1_NS5_9allocatorIS1_EEEE
   fun:_ZN4dyldL10loadPhase4EPKcS1_RKNS_11LoadContextEPNSt3__16vectorIS1_NS5_9allocatorIS1_EEEE
   fun:_ZN4dyldL10loadPhase3EPKcS1_RKNS_11LoadContextEPNSt3__16vectorIS1_NS5_9allocatorIS1_EEEE
   fun:_ZN4dyldL10loadPhase1EPKcS1_RKNS_11LoadContextEPNSt3__16vectorIS1_NS5_9allocatorIS1_EEEE
   fun:_ZN4dyldL10loadPhase0EPKcS1_RKNS_11LoadContextEPNSt3__16vectorIS1_NS5_9allocatorIS1_EEEE
   fun:_ZN4dyld4loadEPKcRKNS_11LoadContextE
   fun:_ZN4dyldL14libraryLocatorEPKcbS1_PKN11ImageLoader10RPathChainE
}
{
   <insert_a_suppression_name_here>
   Memcheck:Leak
   match-leak-kinds: indirect
   fun:malloc_zone_malloc
   fun:_CFRuntimeCreateInstance
   fun:__CFStringCreateImmutableFunnel3
   fun:CFStringCreateWithCString
   fun:__CFInitialize
   fun:_ZN16ImageLoaderMachO11doImageInitERKN11ImageLoader11LinkContextE
   fun:_ZN16ImageLoaderMachO16doInitializationERKN11ImageLoader11LinkContextE
   fun:_ZN11ImageLoader23recursiveInitializationERKNS_11LinkContextEjRNS_21InitializerTimingListERNS_15UninitedUpwardsE
   fun:_ZN11ImageLoader23recursiveInitializationERKNS_11LinkContextEjRNS_21InitializerTimingListERNS_15UninitedUpwardsE
   fun:_ZN11ImageLoader23recursiveInitializationERKNS_11LinkContextEjRNS_21InitializerTimingListERNS_15UninitedUpwardsE
   fun:_ZN11ImageLoader23recursiveInitializationERKNS_11LinkContextEjRNS_21InitializerTimingListERNS_15UninitedUpwardsE
   fun:_ZN11ImageLoader23recursiveInitializationERKNS_11LinkContextEjRNS_21InitializerTimingListERNS_15UninitedUpwardsE
}
{
   <insert_a_suppression_name_here>
   Memcheck:Leak
   match-leak-kinds: indirect
   fun:malloc_zone_malloc
   fun:_CFRuntimeCreateInstance
   fun:__CFStringCreateImmutableFunnel3
   fun:CFStringCreateWithBytes
   fun:CreateStringFromFileSystemRepresentationByAddingPercentEscapes
   fun:_CFURLCreateWithFileSystemRepresentation
   fun:_CFBundleCreate
   fun:_CFBundleGetMainBundleAlreadyLocked
   fun:CFBundleGetMainBundle
   fun:___bundleInfo_block_invoke
   fun:_dispatch_client_callout
   fun:dispatch_once_f
}
{
   <insert_a_suppression_name_here>
   Memcheck:Leak
   match-leak-kinds: definite
   fun:malloc_zone_malloc
   fun:_CFRuntimeCreateInstance
   fun:CFBasicHashCreate
   fun:__CFSetCreateGeneric
   fun:CFSetCreate
   fun:_GLOBAL__sub_I_TubeManager.cpp
   fun:_ZN16ImageLoaderMachO18doModInitFunctionsERKN11ImageLoader11LinkContextE
   fun:_ZN16ImageLoaderMachO16doInitializationERKN11ImageLoader11LinkContextE
   fun:_ZN11ImageLoader23recursiveInitializationERKNS_11LinkContextEjRNS_21InitializerTimingListERNS_15UninitedUpwardsE
   fun:_ZN11ImageLoader23recursiveInitializationERKNS_11LinkContextEjRNS_21InitializerTimingListERNS_15UninitedUpwardsE
   fun:_ZN11ImageLoader23recursiveInitializationERKNS_11LinkContextEjRNS_21InitializerTimingListERNS_15UninitedUpwardsE
   fun:_ZN11ImageLoader23recursiveInitializationERKNS_11LinkContextEjRNS_21InitializerTimingListERNS_15UninitedUpwardsE
}
{
   <insert_a_suppression_name_here>
   Memcheck:Leak
   match-leak-kinds: definite
   fun:malloc_zone_malloc
   fun:_CFRuntimeCreateInstance
   fun:CFBasicHashCreate
   fun:__CFSetCreateGeneric
   fun:CFSetCreate
   fun:_GLOBAL__sub_I_PACSupport.c
   fun:_ZN16ImageLoaderMachO18doModInitFunctionsERKN11ImageLoader11LinkContextE
   fun:_ZN16ImageLoaderMachO16doInitializationERKN11ImageLoader11LinkContextE
   fun:_ZN11ImageLoader23recursiveInitializationERKNS_11LinkContextEjRNS_21InitializerTimingListERNS_15UninitedUpwardsE
   fun:_ZN11ImageLoader23recursiveInitializationERKNS_11LinkContextEjRNS_21InitializerTimingListERNS_15UninitedUpwardsE
   fun:_ZN11ImageLoader23recursiveInitializationERKNS_11LinkContextEjRNS_21InitializerTimingListERNS_15UninitedUpwardsE
   fun:_ZN11ImageLoader23recursiveInitializationERKNS_11LinkContextEjRNS_21InitializerTimingListERNS_15UninitedUpwardsE
}
{
   <insert_a_suppression_name_here>
   Memcheck:Leak
   match-leak-kinds: definite
   fun:malloc_zone_malloc
   fun:_CFRuntimeCreateInstance
   fun:CFBasicHashCreate
   fun:__CFSetCreateGeneric
   fun:CFSetCreate
   fun:_GLOBAL__sub_I_SSPDYConnectionCache.cpp
   fun:_ZN16ImageLoaderMachO18doModInitFunctionsERKN11ImageLoader11LinkContextE
   fun:_ZN16ImageLoaderMachO16doInitializationERKN11ImageLoader11LinkContextE
   fun:_ZN11ImageLoader23recursiveInitializationERKNS_11LinkContextEjRNS_21InitializerTimingListERNS_15UninitedUpwardsE
   fun:_ZN11ImageLoader23recursiveInitializationERKNS_11LinkContextEjRNS_21InitializerTimingListERNS_15UninitedUpwardsE
   fun:_ZN11ImageLoader23recursiveInitializationERKNS_11LinkContextEjRNS_21InitializerTimingListERNS_15UninitedUpwardsE
   fun:_ZN11ImageLoader23recursiveInitializationERKNS_11LinkContextEjRNS_21InitializerTimingListERNS_15UninitedUpwardsE
}
{
   <insert_a_suppression_name_here>
   Memcheck:Leak
   match-leak-kinds: reachable
   fun:calloc
   fun:_ZL12_NXMapMemberP11_NXMapTablePKvPPv
   fun:objc_release
   fun:_NSToDoAtProcessStart
   fun:_NSInitializePlatform
   fun:cache_fill
   fun:NXMapRemove
   fun:_ZN4dyldL12notifySingleE17dyld_image_statesPK11ImageLoader
   fun:_ZN11ImageLoader23recursiveInitializationERKNS_11LinkContextEjRNS_21InitializerTimingListERNS_15UninitedUpwardsE
   fun:_ZN11ImageLoader23recursiveInitializationERKNS_11LinkContextEjRNS_21InitializerTimingListERNS_15UninitedUpwardsE
   fun:_ZN11ImageLoader23recursiveInitializationERKNS_11LinkContextEjRNS_21InitializerTimingListERNS_15UninitedUpwardsE
   fun:_ZN11ImageLoader23recursiveInitializationERKNS_11LinkContextEjRNS_21InitializerTimingListERNS_15UninitedUpwardsE
}
{
   <insert_a_suppression_name_here>
   Memcheck:Leak
   match-leak-kinds: reachable
   fun:calloc
   fun:_class_getNonMetaClass
   fun:lookUpImpOrForward
   fun:objc_msgSendSuper_stret
   fun:objc_retain
   fun:_ZL16attachCategoriesP10objc_classP26locstamped_category_list_tb
   fun:+[NSDictionary allocWithZone:]
   fun:+[__NSDictionary0 _alloc]
   fun:__CFInitialize
   fun:_ZN16ImageLoaderMachO11doImageInitERKN11ImageLoader11LinkContextE
   fun:_ZN16ImageLoaderMachO16doInitializationERKN11ImageLoader11LinkContextE
   fun:_ZN11ImageLoader23recursiveInitializationERKNS_11LinkContextEjRNS_21InitializerTimingListERNS_15UninitedUpwardsE
}
{
   <insert_a_suppression_name_here>
   Memcheck:Leak
   match-leak-kinds: reachable
   fun:calloc
   fun:_ZL12_NXMapMemberP11_NXMapTablePKvPPv
   fun:hasLoadMethods
   fun:_ZL16attachCategoriesP10objc_classP26locstamped_category_list_tb
   fun:_ZN12_GLOBAL__N_119AutoreleasePoolPage3popEPv
   fun:-[NSThread init]
   fun:____NSThreads_block_invoke
   fun:_dispatch_client_callout
   fun:dispatch_once_f
   fun:_NSThreadGet0
   fun:_NSInitializePlatform
   fun:cache_fill
}
{
   <insert_a_suppression_name_here>
   Memcheck:Leak
   match-leak-kinds: definite
   fun:calloc
   fun:NXMapRemove
   fun:NSAllocateObject
   fun:_NSPlaceholderValueOrNumber
   fun:objc_msgSend_fpret
   fun:objc_msgSendSuper
   fun:_Z28_getObjc2NonlazyCategoryListPK14mach_header_64Pm
   fun:_ZL16attachCategoriesP10objc_classP26locstamped_category_list_tb
   fun:+[DDDynamicSource registerDynamicSourceClass:forSourceKind:]
   fun:+[DDGeoSource load]
   fun:_ZL19_finishInitializingP10objc_classS0_
   fun:NXMapRemove
}
{
   <insert_a_suppression_name_here>
   Memcheck:Leak
   match-leak-kinds: definite
   fun:calloc
   fun:NXMapRemove
   fun:__CFAllocateObject2
   fun:+[__NSArrayI __new:::]
   fun:CFArrayCreate
   fun:__CFInitialize
   fun:_ZN16ImageLoaderMachO11doImageInitERKN11ImageLoader11LinkContextE
   fun:_ZN16ImageLoaderMachO16doInitializationERKN11ImageLoader11LinkContextE
   fun:_ZN11ImageLoader23recursiveInitializationERKNS_11LinkContextEjRNS_21InitializerTimingListERNS_15UninitedUpwardsE
   fun:_ZN11ImageLoader23recursiveInitializationERKNS_11LinkContextEjRNS_21InitializerTimingListERNS_15UninitedUpwardsE
   fun:_ZN11ImageLoader23recursiveInitializationERKNS_11LinkContextEjRNS_21InitializerTimingListERNS_15UninitedUpwardsE
   fun:_ZN11ImageLoader23recursiveInitializationERKNS_11LinkContextEjRNS_21InitializerTimingListERNS_15UninitedUpwardsE
}
{
   <insert_a_suppression_name_here>
   Memcheck:Leak
   match-leak-kinds: reachable
   fun:calloc
   fun:NXMapRemove
   fun:_os_object_alloc_realized
   fun:xpc_uint64_create
   fun:xpc_dictionary_set_uint64
   fun:_xpc_dyld_image_callback
   fun:_ZN4dyldL18notifyBatchPartialE17dyld_image_statesbPFPKcS0_jPK15dyld_image_infoE
   fun:_ZN11ImageLoader4linkERKNS_11LinkContextEbbbRKNS_10RPathChainE
   fun:_ZN4dyld4linkEP11ImageLoaderbbRKNS0_10RPathChainE
   fun:dlopen
   fun:dlopen
   fun:heim_load_frameworks
}
{
   <insert_a_suppression_name_here>
   Memcheck:Leak
   match-leak-kinds: indirect
   fun:malloc_zone_malloc
   fun:_CFRuntimeCreateInstance
   fun:_CFBundleCreate
   fun:_CFBundleGetMainBundleAlreadyLocked
   fun:CFBundleGetMainBundle
   fun:___bundleInfo_block_invoke
   fun:_dispatch_client_callout
   fun:dispatch_once_f
   fun:_CFAppVersionCheckLessThan
   fun:__25+[NSArray allocWithZone:]_block_invoke
   fun:_dispatch_client_callout
   fun:dispatch_once_f
}
{
   <insert_a_suppression_name_here>
   Memcheck:Leak
   match-leak-kinds: reachable
   fun:calloc
   fun:_class_getNonMetaClass
   fun:lookUpImpOrForward
   fun:objc_msgSendSuper_stret
   fun:class_createInstance
   fun:_ZL16attachCategoriesP10objc_classP26locstamped_category_list_tb
   fun:-[NSString(NSCFAdditions) _createSubstringWithRange:]
   fun:CFStringCreateWithSubstring
   fun:CFURLCreateStringWithFileSystemPath
   fun:CFURLGetFileSystemRepresentation
   fun:_CFBundleGetBundleVersionForURL
   fun:_CFBundleCreate
}
{
   <insert_a_suppression_name_here>
   Memcheck:Leak
   match-leak-kinds: definite
   fun:malloc_zone_malloc
   fun:_CFRuntimeCreateInstance
   fun:CFBasicHashCreate
   fun:__CFSetCreateGeneric
   fun:CFSetCreate
   fun:_GLOBAL__sub_I_HTTP2Connection.cpp
   fun:_ZN16ImageLoaderMachO18doModInitFunctionsERKN11ImageLoader11LinkContextE
   fun:_ZN16ImageLoaderMachO16doInitializationERKN11ImageLoader11LinkContextE
   fun:_ZN11ImageLoader23recursiveInitializationERKNS_11LinkContextEjRNS_21InitializerTimingListERNS_15UninitedUpwardsE
   fun:_ZN11ImageLoader23recursiveInitializationERKNS_11LinkContextEjRNS_21InitializerTimingListERNS_15UninitedUpwardsE
   fun:_ZN11ImageLoader23recursiveInitializationERKNS_11LinkContextEjRNS_21InitializerTimingListERNS_15UninitedUpwardsE
   fun:_ZN11ImageLoader23recursiveInitializationERKNS_11LinkContextEjRNS_21InitializerTimingListERNS_15UninitedUpwardsE
}
{
   <insert_a_suppression_name_here>
   Memcheck:Leak
   match-leak-kinds: indirect
   fun:malloc_zone_malloc
   fun:__CFBasicHashRehash
   fun:CFSetCreate
   fun:_GLOBAL__sub_I_AuthBrokerClient.cpp
   fun:_ZN16ImageLoaderMachO18doModInitFunctionsERKN11ImageLoader11LinkContextE
   fun:_ZN16ImageLoaderMachO16doInitializationERKN11ImageLoader11LinkContextE
   fun:_ZN11ImageLoader23recursiveInitializationERKNS_11LinkContextEjRNS_21InitializerTimingListERNS_15UninitedUpwardsE
   fun:_ZN11ImageLoader23recursiveInitializationERKNS_11LinkContextEjRNS_21InitializerTimingListERNS_15UninitedUpwardsE
   fun:_ZN11ImageLoader23recursiveInitializationERKNS_11LinkContextEjRNS_21InitializerTimingListERNS_15UninitedUpwardsE
   fun:_ZN11ImageLoader23recursiveInitializationERKNS_11LinkContextEjRNS_21InitializerTimingListERNS_15UninitedUpwardsE
   fun:_ZN11ImageLoader23recursiveInitializationERKNS_11LinkContextEjRNS_21InitializerTimingListERNS_15UninitedUpwardsE
   fun:_ZN11ImageLoader23recursiveInitializationERKNS_11LinkContextEjRNS_21InitializerTimingListERNS_15UninitedUpwardsE
}
{
   <insert_a_suppression_name_here>
   Memcheck:Leak
   match-leak-kinds: definite
   fun:malloc_zone_malloc
   fun:_CFRuntimeCreateInstance
   fun:CFBasicHashCreate
   fun:__CFSetCreateGeneric
   fun:CFSetCreate
   fun:_GLOBAL__sub_I_HTTPNetConnection_WithAuth.cpp
   fun:_ZN16ImageLoaderMachO18doModInitFunctionsERKN11ImageLoader11LinkContextE
   fun:_ZN16ImageLoaderMachO16doInitializationERKN11ImageLoader11LinkContextE
   fun:_ZN11ImageLoader23recursiveInitializationERKNS_11LinkContextEjRNS_21InitializerTimingListERNS_15UninitedUpwardsE
   fun:_ZN11ImageLoader23recursiveInitializationERKNS_11LinkContextEjRNS_21InitializerTimingListERNS_15UninitedUpwardsE
   fun:_ZN11ImageLoader23recursiveInitializationERKNS_11LinkContextEjRNS_21InitializerTimingListERNS_15UninitedUpwardsE
   fun:_ZN11ImageLoader23recursiveInitializationERKNS_11LinkContextEjRNS_21InitializerTimingListERNS_15UninitedUpwardsE
}
{
   <insert_a_suppression_name_here>
   Memcheck:Leak
   match-leak-kinds: possible
   fun:malloc_zone_calloc
   fun:NXCreateMapTable
   fun:_ZL12realizeClassP10objc_class
   fun:hasLoadMethods
   fun:_ZL16attachCategoriesP10objc_classP26locstamped_category_list_tb
   fun:+[NSMutableString initialize]
   fun:objc_msgSend_fpret
   fun:_Z28_getObjc2NonlazyCategoryListPK14mach_header_64Pm
   fun:_ZL16attachCategoriesP10objc_classP26locstamped_category_list_tb
   fun:+[NSMutableString initialize]
   fun:objc_msgSend_fpret
   fun:_Z28_getObjc2NonlazyCategoryListPK14mach_header_64Pm
}
{
   <insert_a_suppression_name_here>
   Memcheck:Leak
   match-leak-kinds: indirect
   fun:malloc_zone_malloc
   fun:__CFBasicHashRehash
   fun:CFSetCreate
   fun:_GLOBAL__sub_I_CFURLConnection.cpp
   fun:_ZN16ImageLoaderMachO18doModInitFunctionsERKN11ImageLoader11LinkContextE
   fun:_ZN16ImageLoaderMachO16doInitializationERKN11ImageLoader11LinkContextE
   fun:_ZN11ImageLoader23recursiveInitializationERKNS_11LinkContextEjRNS_21InitializerTimingListERNS_15UninitedUpwardsE
   fun:_ZN11ImageLoader23recursiveInitializationERKNS_11LinkContextEjRNS_21InitializerTimingListERNS_15UninitedUpwardsE
   fun:_ZN11ImageLoader23recursiveInitializationERKNS_11LinkContextEjRNS_21InitializerTimingListERNS_15UninitedUpwardsE
   fun:_ZN11ImageLoader23recursiveInitializationERKNS_11LinkContextEjRNS_21InitializerTimingListERNS_15UninitedUpwardsE
   fun:_ZN11ImageLoader23recursiveInitializationERKNS_11LinkContextEjRNS_21InitializerTimingListERNS_15UninitedUpwardsE
   fun:_ZN11ImageLoader23recursiveInitializationERKNS_11LinkContextEjRNS_21InitializerTimingListERNS_15UninitedUpwardsE
}
{
   <insert_a_suppression_name_here>
   Memcheck:Leak
   match-leak-kinds: indirect
   fun:malloc_zone_malloc
   fun:__CFBasicHashRehash
   fun:CFSetCreate
   fun:_GLOBAL__sub_I_SPDYConnectionCacheEntry.cpp
   fun:_ZN16ImageLoaderMachO18doModInitFunctionsERKN11ImageLoader11LinkContextE
   fun:_ZN16ImageLoaderMachO16doInitializationERKN11ImageLoader11LinkContextE
   fun:_ZN11ImageLoader23recursiveInitializationERKNS_11LinkContextEjRNS_21InitializerTimingListERNS_15UninitedUpwardsE
   fun:_ZN11ImageLoader23recursiveInitializationERKNS_11LinkContextEjRNS_21InitializerTimingListERNS_15UninitedUpwardsE
   fun:_ZN11ImageLoader23recursiveInitializationERKNS_11LinkContextEjRNS_21InitializerTimingListERNS_15UninitedUpwardsE
   fun:_ZN11ImageLoader23recursiveInitializationERKNS_11LinkContextEjRNS_21InitializerTimingListERNS_15UninitedUpwardsE
   fun:_ZN11ImageLoader23recursiveInitializationERKNS_11LinkContextEjRNS_21InitializerTimingListERNS_15UninitedUpwardsE
   fun:_ZN11ImageLoader23recursiveInitializationERKNS_11LinkContextEjRNS_21InitializerTimingListERNS_15UninitedUpwardsE
}
{
   <insert_a_suppression_name_here>
   Memcheck:Leak
   match-leak-kinds: definite
   fun:malloc_zone_malloc
   fun:_CFRuntimeCreateInstance
   fun:CFBasicHashCreate
   fun:__CFSetCreateGeneric
   fun:CFSetCreate
   fun:_GLOBAL__sub_I_SessionConnection.mm
   fun:_ZN16ImageLoaderMachO18doModInitFunctionsERKN11ImageLoader11LinkContextE
   fun:_ZN16ImageLoaderMachO16doInitializationERKN11ImageLoader11LinkContextE
   fun:_ZN11ImageLoader23recursiveInitializationERKNS_11LinkContextEjRNS_21InitializerTimingListERNS_15UninitedUpwardsE
   fun:_ZN11ImageLoader23recursiveInitializationERKNS_11LinkContextEjRNS_21InitializerTimingListERNS_15UninitedUpwardsE
   fun:_ZN11ImageLoader23recursiveInitializationERKNS_11LinkContextEjRNS_21InitializerTimingListERNS_15UninitedUpwardsE
   fun:_ZN11ImageLoader23recursiveInitializationERKNS_11LinkContextEjRNS_21InitializerTimingListERNS_15UninitedUpwardsE
}
{
   <insert_a_suppression_name_here>
   Memcheck:Leak
   match-leak-kinds: definite
   fun:malloc_zone_malloc
   fun:_CFRuntimeCreateInstance
   fun:CFBasicHashCreate
   fun:__CFSetCreateGeneric
   fun:CFSetCreate
   fun:_GLOBAL__sub_I_ActualCredentialStorage.cpp
   fun:_ZN16ImageLoaderMachO18doModInitFunctionsERKN11ImageLoader11LinkContextE
   fun:_ZN16ImageLoaderMachO16doInitializationERKN11ImageLoader11LinkContextE
   fun:_ZN11ImageLoader23recursiveInitializationERKNS_11LinkContextEjRNS_21InitializerTimingListERNS_15UninitedUpwardsE
   fun:_ZN11ImageLoader23recursiveInitializationERKNS_11LinkContextEjRNS_21InitializerTimingListERNS_15UninitedUpwardsE
   fun:_ZN11ImageLoader23recursiveInitializationERKNS_11LinkContextEjRNS_21InitializerTimingListERNS_15UninitedUpwardsE
   fun:_ZN11ImageLoader23recursiveInitializationERKNS_11LinkContextEjRNS_21InitializerTimingListERNS_15UninitedUpwardsE
}
{
   <insert_a_suppression_name_here>
   Memcheck:Leak
   match-leak-kinds: definite
   fun:malloc_zone_malloc
   fun:_CFRuntimeCreateInstance
   fun:CFBasicHashCreate
   fun:__CFSetCreateGeneric
   fun:CFSetCreate
   fun:_GLOBAL__sub_I_IOGlue.cpp
   fun:_ZN16ImageLoaderMachO18doModInitFunctionsERKN11ImageLoader11LinkContextE
   fun:_ZN16ImageLoaderMachO16doInitializationERKN11ImageLoader11LinkContextE
   fun:_ZN11ImageLoader23recursiveInitializationERKNS_11LinkContextEjRNS_21InitializerTimingListERNS_15UninitedUpwardsE
   fun:_ZN11ImageLoader23recursiveInitializationERKNS_11LinkContextEjRNS_21InitializerTimingListERNS_15UninitedUpwardsE
   fun:_ZN11ImageLoader23recursiveInitializationERKNS_11LinkContextEjRNS_21InitializerTimingListERNS_15UninitedUpwardsE
   fun:_ZN11ImageLoader23recursiveInitializationERKNS_11LinkContextEjRNS_21InitializerTimingListERNS_15UninitedUpwardsE
}
{
   <insert_a_suppression_name_here>
   Memcheck:Leak
   match-leak-kinds: indirect
   fun:malloc_zone_malloc
   fun:__CFBasicHashRehash
   fun:CFSetCreate
   fun:_GLOBAL__sub_I_Tube.cpp
   fun:_ZN16ImageLoaderMachO18doModInitFunctionsERKN11ImageLoader11LinkContextE
   fun:_ZN16ImageLoaderMachO16doInitializationERKN11ImageLoader11LinkContextE
   fun:_ZN11ImageLoader23recursiveInitializationERKNS_11LinkContextEjRNS_21InitializerTimingListERNS_15UninitedUpwardsE
   fun:_ZN11ImageLoader23recursiveInitializationERKNS_11LinkContextEjRNS_21InitializerTimingListERNS_15UninitedUpwardsE
   fun:_ZN11ImageLoader23recursiveInitializationERKNS_11LinkContextEjRNS_21InitializerTimingListERNS_15UninitedUpwardsE
   fun:_ZN11ImageLoader23recursiveInitializationERKNS_11LinkContextEjRNS_21InitializerTimingListERNS_15UninitedUpwardsE
   fun:_ZN11ImageLoader23recursiveInitializationERKNS_11LinkContextEjRNS_21InitializerTimingListERNS_15UninitedUpwardsE
   fun:_ZN11ImageLoader23recursiveInitializationERKNS_11LinkContextEjRNS_21InitializerTimingListERNS_15UninitedUpwardsE
}
{
   <insert_a_suppression_name_here>
   Memcheck:Leak
   match-leak-kinds: definite
   fun:malloc_zone_malloc
   fun:_CFRuntimeCreateInstance
   fun:CFBasicHashCreate
   fun:__CFSetCreateGeneric
   fun:CFSetCreate
   fun:_GLOBAL__sub_I_HTTPConnectionCacheEntry.cpp
   fun:_ZN16ImageLoaderMachO18doModInitFunctionsERKN11ImageLoader11LinkContextE
   fun:_ZN16ImageLoaderMachO16doInitializationERKN11ImageLoader11LinkContextE
   fun:_ZN11ImageLoader23recursiveInitializationERKNS_11LinkContextEjRNS_21InitializerTimingListERNS_15UninitedUpwardsE
   fun:_ZN11ImageLoader23recursiveInitializationERKNS_11LinkContextEjRNS_21InitializerTimingListERNS_15UninitedUpwardsE
   fun:_ZN11ImageLoader23recursiveInitializationERKNS_11LinkContextEjRNS_21InitializerTimingListERNS_15UninitedUpwardsE
   fun:_ZN11ImageLoader23recursiveInitializationERKNS_11LinkContextEjRNS_21InitializerTimingListERNS_15UninitedUpwardsE
}
{
   <insert_a_suppression_name_here>
   Memcheck:Leak
   match-leak-kinds: reachable
   fun:calloc
   fun:_class_getNonMetaClass
   fun:lookUpImpOrForward
   fun:objc_msgSendSuper_stret
   fun:class_createInstance
   fun:_ZL16attachCategoriesP10objc_classP26locstamped_category_list_tb
   fun:_ZN12_GLOBAL__N_119AutoreleasePoolPage3popEPv
   fun:-[NSThread init]
   fun:____NSThreads_block_invoke
   fun:_dispatch_client_callout
   fun:dispatch_once_f
   fun:_NSThreadGet0
}
{
   <insert_a_suppression_name_here>
   Memcheck:Leak
   match-leak-kinds: reachable
   fun:calloc
   fun:_ZL12_NXMapMemberP11_NXMapTablePKvPPv
   fun:objc_release
   fun:____FoundationPresent_block_invoke
   fun:_dispatch_client_callout
   fun:dispatch_once_f
   fun:CFArrayCreate
   fun:__CFInitialize
   fun:_ZN16ImageLoaderMachO11doImageInitERKN11ImageLoader11LinkContextE
   fun:_ZN16ImageLoaderMachO16doInitializationERKN11ImageLoader11LinkContextE
   fun:_ZN11ImageLoader23recursiveInitializationERKNS_11LinkContextEjRNS_21InitializerTimingListERNS_15UninitedUpwardsE
   fun:_ZN11ImageLoader23recursiveInitializationERKNS_11LinkContextEjRNS_21InitializerTimingListERNS_15UninitedUpwardsE
}
{
   <insert_a_suppression_name_here>
   Memcheck:Leak
   match-leak-kinds: definite
   fun:malloc_zone_malloc
   fun:_CFRuntimeCreateInstance
   fun:CFBasicHashCreate
   fun:__CFSetCreateGeneric
   fun:CFSetCreate
   fun:_GLOBAL__sub_I_CFURLCache.mm
   fun:_ZN16ImageLoaderMachO18doModInitFunctionsERKN11ImageLoader11LinkContextE
   fun:_ZN16ImageLoaderMachO16doInitializationERKN11ImageLoader11LinkContextE
   fun:_ZN11ImageLoader23recursiveInitializationERKNS_11LinkContextEjRNS_21InitializerTimingListERNS_15UninitedUpwardsE
   fun:_ZN11ImageLoader23recursiveInitializationERKNS_11LinkContextEjRNS_21InitializerTimingListERNS_15UninitedUpwardsE
   fun:_ZN11ImageLoader23recursiveInitializationERKNS_11LinkContextEjRNS_21InitializerTimingListERNS_15UninitedUpwardsE
   fun:_ZN11ImageLoader23recursiveInitializationERKNS_11LinkContextEjRNS_21InitializerTimingListERNS_15UninitedUpwardsE
}
{
   <insert_a_suppression_name_here>
   Memcheck:Leak
   match-leak-kinds: reachable
   fun:calloc
   fun:_ZL12_NXMapMemberP11_NXMapTablePKvPPv
   fun:_ZL11_mapStrHashP11_NXMapTablePKv
   fun:_ZL11_mapStrHashP11_NXMapTablePKv
   fun:objc_release
   fun:_object_remove_assocations
   fun:__CFInitialize
   fun:_ZN16ImageLoaderMachO11doImageInitERKN11ImageLoader11LinkContextE
   fun:_ZN16ImageLoaderMachO16doInitializationERKN11ImageLoader11LinkContextE
   fun:_ZN11ImageLoader23recursiveInitializationERKNS_11LinkContextEjRNS_21InitializerTimingListERNS_15UninitedUpwardsE
   fun:_ZN11ImageLoader23recursiveInitializationERKNS_11LinkContextEjRNS_21InitializerTimingListERNS_15UninitedUpwardsE
   fun:_ZN11ImageLoader23recursiveInitializationERKNS_11LinkContextEjRNS_21InitializerTimingListERNS_15UninitedUpwardsE
}
{
   <insert_a_suppression_name_here>
   Memcheck:Leak
   match-leak-kinds: definite
   fun:malloc_zone_malloc
   fun:_CFRuntimeCreateInstance
   fun:CFBasicHashCreate
   fun:__CFSetCreateGeneric
   fun:CFSetCreate
   fun:_GLOBAL__sub_I_SHTTP2Connection.cpp
   fun:_ZN16ImageLoaderMachO18doModInitFunctionsERKN11ImageLoader11LinkContextE
   fun:_ZN16ImageLoaderMachO16doInitializationERKN11ImageLoader11LinkContextE
   fun:_ZN11ImageLoader23recursiveInitializationERKNS_11LinkContextEjRNS_21InitializerTimingListERNS_15UninitedUpwardsE
   fun:_ZN11ImageLoader23recursiveInitializationERKNS_11LinkContextEjRNS_21InitializerTimingListERNS_15UninitedUpwardsE
   fun:_ZN11ImageLoader23recursiveInitializationERKNS_11LinkContextEjRNS_21InitializerTimingListERNS_15UninitedUpwardsE
   fun:_ZN11ImageLoader23recursiveInitializationERKNS_11LinkContextEjRNS_21InitializerTimingListERNS_15UninitedUpwardsE
}
{
   <insert_a_suppression_name_here>
   Memcheck:Leak
   match-leak-kinds: definite
   fun:calloc
   fun:NXMapRemove
   fun:__CFAllocateObject2
   fun:__34+[__NSPlaceholderArray initialize]_block_invoke
   fun:_dispatch_client_callout
   fun:dispatch_once_f
   fun:objc_msgSend_fpret
   fun:_Z28_getObjc2NonlazyCategoryListPK14mach_header_64Pm
   fun:_ZL16attachCategoriesP10objc_classP26locstamped_category_list_tb
   fun:CFArrayCreate
   fun:__CFInitialize
   fun:_ZN16ImageLoaderMachO11doImageInitERKN11ImageLoader11LinkContextE
}
{
   <insert_a_suppression_name_here>
   Memcheck:Leak
   match-leak-kinds: reachable
   fun:calloc
   fun:_ZL12_NXMapMemberP11_NXMapTablePKvPPv
   fun:hasLoadMethods
   fun:_ZL16attachCategoriesP10objc_classP26locstamped_category_list_tb
   fun:-[__NSPlaceholderDictionary initWithCapacity:]
   fun:-[NSThread init]
   fun:____NSThreads_block_invoke
   fun:_dispatch_client_callout
   fun:dispatch_once_f
   fun:_NSThreadGet0
   fun:_NSInitializePlatform
   fun:cache_fill
}
{
   <insert_a_suppression_name_here>
   Memcheck:Leak
   match-leak-kinds: reachable
   fun:calloc
   fun:_class_getNonMetaClass
   fun:lookUpImpOrForward
   fun:objc_msgSendSuper_stret
   fun:class_createInstance
   fun:_ZL16attachCategoriesP10objc_classP26locstamped_category_list_tb
   fun:+[NSMutableString initialize]
   fun:objc_msgSend_fpret
   fun:_Z28_getObjc2NonlazyCategoryListPK14mach_header_64Pm
   fun:_ZL16attachCategoriesP10objc_classP26locstamped_category_list_tb
   fun:+[__NSDictionaryI __new:::::]
   fun:-[__NSPlaceholderDictionary initWithObjects:forKeys:count:]
}
{
   <insert_a_suppression_name_here>
   Memcheck:Leak
   match-leak-kinds: definite
   fun:malloc_zone_malloc
   fun:_CFRuntimeCreateInstance
   fun:CFBasicHashCreate
   fun:__CFSetCreateGeneric
   fun:CFSetCreate
   fun:_GLOBAL__sub_I_HTTPFilter.cpp
   fun:_ZN16ImageLoaderMachO18doModInitFunctionsERKN11ImageLoader11LinkContextE
   fun:_ZN16ImageLoaderMachO16doInitializationERKN11ImageLoader11LinkContextE
   fun:_ZN11ImageLoader23recursiveInitializationERKNS_11LinkContextEjRNS_21InitializerTimingListERNS_15UninitedUpwardsE
   fun:_ZN11ImageLoader23recursiveInitializationERKNS_11LinkContextEjRNS_21InitializerTimingListERNS_15UninitedUpwardsE
   fun:_ZN11ImageLoader23recursiveInitializationERKNS_11LinkContextEjRNS_21InitializerTimingListERNS_15UninitedUpwardsE
   fun:_ZN11ImageLoader23recursiveInitializationERKNS_11LinkContextEjRNS_21InitializerTimingListERNS_15UninitedUpwardsE
}
{
   <insert_a_suppression_name_here>
   Memcheck:Leak
   match-leak-kinds: indirect
   fun:malloc_zone_malloc
   fun:__CFBasicHashRehash
   fun:CFSetCreate
   fun:_GLOBAL__sub_I_HTTPReadFilter.cpp
   fun:_ZN16ImageLoaderMachO18doModInitFunctionsERKN11ImageLoader11LinkContextE
   fun:_ZN16ImageLoaderMachO16doInitializationERKN11ImageLoader11LinkContextE
   fun:_ZN11ImageLoader23recursiveInitializationERKNS_11LinkContextEjRNS_21InitializerTimingListERNS_15UninitedUpwardsE
   fun:_ZN11ImageLoader23recursiveInitializationERKNS_11LinkContextEjRNS_21InitializerTimingListERNS_15UninitedUpwardsE
   fun:_ZN11ImageLoader23recursiveInitializationERKNS_11LinkContextEjRNS_21InitializerTimingListERNS_15UninitedUpwardsE
   fun:_ZN11ImageLoader23recursiveInitializationERKNS_11LinkContextEjRNS_21InitializerTimingListERNS_15UninitedUpwardsE
   fun:_ZN11ImageLoader23recursiveInitializationERKNS_11LinkContextEjRNS_21InitializerTimingListERNS_15UninitedUpwardsE
   fun:_ZN11ImageLoader23recursiveInitializationERKNS_11LinkContextEjRNS_21InitializerTimingListERNS_15UninitedUpwardsE
}
{
   <insert_a_suppression_name_here>
   Memcheck:Leak
   match-leak-kinds: definite
   fun:malloc_zone_malloc
   fun:____CFCharacterSetInitialize_block_invoke
   fun:_dispatch_client_callout
   fun:dispatch_once_f
   fun:__CFInitialize
   fun:_ZN16ImageLoaderMachO11doImageInitERKN11ImageLoader11LinkContextE
   fun:_ZN16ImageLoaderMachO16doInitializationERKN11ImageLoader11LinkContextE
   fun:_ZN11ImageLoader23recursiveInitializationERKNS_11LinkContextEjRNS_21InitializerTimingListERNS_15UninitedUpwardsE
   fun:_ZN11ImageLoader23recursiveInitializationERKNS_11LinkContextEjRNS_21InitializerTimingListERNS_15UninitedUpwardsE
   fun:_ZN11ImageLoader23recursiveInitializationERKNS_11LinkContextEjRNS_21InitializerTimingListERNS_15UninitedUpwardsE
   fun:_ZN11ImageLoader23recursiveInitializationERKNS_11LinkContextEjRNS_21InitializerTimingListERNS_15UninitedUpwardsE
   fun:_ZN11ImageLoader23recursiveInitializationERKNS_11LinkContextEjRNS_21InitializerTimingListERNS_15UninitedUpwardsE
}
{
   <insert_a_suppression_name_here>
   Memcheck:Leak
   match-leak-kinds: reachable
   fun:calloc
   fun:_ZL12_NXMapMemberP11_NXMapTablePKvPPv
   fun:cache_getImp
   fun:_Z28_getObjc2NonlazyCategoryListPK14mach_header_64Pm
   fun:_ZL16attachCategoriesP10objc_classP26locstamped_category_list_tb
   fun:_NSPlaceholderValueOrNumber
   fun:objc_msgSend_fpret
   fun:objc_msgSendSuper
   fun:_Z28_getObjc2NonlazyCategoryListPK14mach_header_64Pm
   fun:_ZL16attachCategoriesP10objc_classP26locstamped_category_list_tb
   fun:+[DDDynamicSource registerDynamicSourceClass:forSourceKind:]
   fun:+[DDGeoSource load]
}
{
   <insert_a_suppression_name_here>
   Memcheck:Leak
   match-leak-kinds: indirect
   fun:malloc_zone_malloc
   fun:__CFBasicHashRehash
   fun:CFSetCreate
   fun:_GLOBAL__sub_I_CFURLProtectionSpace.c
   fun:_ZN16ImageLoaderMachO18doModInitFunctionsERKN11ImageLoader11LinkContextE
   fun:_ZN16ImageLoaderMachO16doInitializationERKN11ImageLoader11LinkContextE
   fun:_ZN11ImageLoader23recursiveInitializationERKNS_11LinkContextEjRNS_21InitializerTimingListERNS_15UninitedUpwardsE
   fun:_ZN11ImageLoader23recursiveInitializationERKNS_11LinkContextEjRNS_21InitializerTimingListERNS_15UninitedUpwardsE
   fun:_ZN11ImageLoader23recursiveInitializationERKNS_11LinkContextEjRNS_21InitializerTimingListERNS_15UninitedUpwardsE
   fun:_ZN11ImageLoader23recursiveInitializationERKNS_11LinkContextEjRNS_21InitializerTimingListERNS_15UninitedUpwardsE
   fun:_ZN11ImageLoader23recursiveInitializationERKNS_11LinkContextEjRNS_21InitializerTimingListERNS_15UninitedUpwardsE
   fun:_ZN11ImageLoader23recursiveInitializationERKNS_11LinkContextEjRNS_21InitializerTimingListERNS_15UninitedUpwardsE
}
{
   <insert_a_suppression_name_here>
   Memcheck:Leak
   match-leak-kinds: reachable
   fun:calloc
   fun:_ZL12_NXMapMemberP11_NXMapTablePKvPPv
   fun:hasLoadMethods
   fun:_ZL16attachCategoriesP10objc_classP26locstamped_category_list_tb
   fun:CFArrayCreate
   fun:__CFInitialize
   fun:_ZN16ImageLoaderMachO11doImageInitERKN11ImageLoader11LinkContextE
   fun:_ZN16ImageLoaderMachO16doInitializationERKN11ImageLoader11LinkContextE
   fun:_ZN11ImageLoader23recursiveInitializationERKNS_11LinkContextEjRNS_21InitializerTimingListERNS_15UninitedUpwardsE
   fun:_ZN11ImageLoader23recursiveInitializationERKNS_11LinkContextEjRNS_21InitializerTimingListERNS_15UninitedUpwardsE
   fun:_ZN11ImageLoader23recursiveInitializationERKNS_11LinkContextEjRNS_21InitializerTimingListERNS_15UninitedUpwardsE
   fun:_ZN11ImageLoader23recursiveInitializationERKNS_11LinkContextEjRNS_21InitializerTimingListERNS_15UninitedUpwardsE
}
{
   <insert_a_suppression_name_here>
   Memcheck:Leak
   match-leak-kinds: reachable
   fun:calloc
   fun:_ZL12_NXMapMemberP11_NXMapTablePKvPPv
   fun:cache_getImp
   fun:_Z28_getObjc2NonlazyCategoryListPK14mach_header_64Pm
   fun:_ZL16attachCategoriesP10objc_classP26locstamped_category_list_tb
   fun:+[NSString initialize]
   fun:objc_msgSend_fpret
   fun:objc_msgSendSuper
   fun:_Z28_getObjc2NonlazyCategoryListPK14mach_header_64Pm
   fun:_ZL16attachCategoriesP10objc_classP26locstamped_category_list_tb
   fun:+[NSMutableString initialize]
   fun:objc_msgSend_fpret
}
{
   <insert_a_suppression_name_here>
   Memcheck:Leak
   match-leak-kinds: indirect
   fun:malloc_zone_malloc
   fun:_CFArrayReplaceValues
   fun:CFArrayAppendValue
   fun:_CFBundleCreate
   fun:_CFBundleGetMainBundleAlreadyLocked
   fun:CFBundleGetMainBundle
   fun:___bundleInfo_block_invoke
   fun:_dispatch_client_callout
   fun:dispatch_once_f
   fun:_CFAppVersionCheckLessThan
   fun:__25+[NSArray allocWithZone:]_block_invoke
   fun:_dispatch_client_callout
}
{
   <insert_a_suppression_name_here>
   Memcheck:Leak
   match-leak-kinds: reachable
   fun:calloc
   fun:_class_getNonMetaClass
   fun:lookUpImpOrForward
   fun:objc_msgSendSuper_stret
   fun:class_createInstance
   fun:_ZL16attachCategoriesP10objc_classP26locstamped_category_list_tb
   fun:CFEqual
   fun:_CFBundleCopyBundleURLForExecutableURL
   fun:_CFBundleGetMainBundleAlreadyLocked
   fun:CFBundleGetMainBundle
   fun:___bundleInfo_block_invoke
   fun:_dispatch_client_callout
}
{
   <insert_a_suppression_name_here>
   Memcheck:Leak
   match-leak-kinds: reachable
   fun:calloc
   fun:_class_getNonMetaClass
   fun:lookUpImpOrForward
   fun:objc_msgSendSuper_stret
   fun:class_createInstance
   fun:_ZL16attachCategoriesP10objc_classP26locstamped_category_list_tb
   fun:__29+[__NSDictionaryM initialize]_block_invoke
   fun:_dispatch_client_callout
   fun:dispatch_once_f
   fun:objc_msgSend_fpret
   fun:_Z28_getObjc2NonlazyCategoryListPK14mach_header_64Pm
   fun:_ZL16attachCategoriesP10objc_classP26locstamped_category_list_tb
}
{
   <insert_a_suppression_name_here>
   Memcheck:Leak
   match-leak-kinds: indirect
   fun:malloc_zone_malloc
   fun:__CFBasicHashRehash
   fun:CFSetCreate
   fun:_GLOBAL__sub_I_SHTTP2Connection.cpp
   fun:_ZN16ImageLoaderMachO18doModInitFunctionsERKN11ImageLoader11LinkContextE
   fun:_ZN16ImageLoaderMachO16doInitializationERKN11ImageLoader11LinkContextE
   fun:_ZN11ImageLoader23recursiveInitializationERKNS_11LinkContextEjRNS_21InitializerTimingListERNS_15UninitedUpwardsE
   fun:_ZN11ImageLoader23recursiveInitializationERKNS_11LinkContextEjRNS_21InitializerTimingListERNS_15UninitedUpwardsE
   fun:_ZN11ImageLoader23recursiveInitializationERKNS_11LinkContextEjRNS_21InitializerTimingListERNS_15UninitedUpwardsE
   fun:_ZN11ImageLoader23recursiveInitializationERKNS_11LinkContextEjRNS_21InitializerTimingListERNS_15UninitedUpwardsE
   fun:_ZN11ImageLoader23recursiveInitializationERKNS_11LinkContextEjRNS_21InitializerTimingListERNS_15UninitedUpwardsE
   fun:_ZN11ImageLoader23recursiveInitializationERKNS_11LinkContextEjRNS_21InitializerTimingListERNS_15UninitedUpwardsE
}
{
   <insert_a_suppression_name_here>
   Memcheck:Leak
   match-leak-kinds: reachable
   fun:calloc
   fun:_class_getNonMetaClass
   fun:lookUpImpOrForward
   fun:objc_msgSendSuper2_stret
   fun:class_createInstance
   fun:_ZL16attachCategoriesP10objc_classP26locstamped_category_list_tb
   fun:isEqualToString
   fun:-[NSTaggedPointerString isEqual:]
   fun:CFEqual
   fun:_CFBundleCopyBundleURLForExecutableURL
   fun:_CFBundleGetMainBundleAlreadyLocked
   fun:CFBundleGetMainBundle
}
{
   <insert_a_suppression_name_here>
   Memcheck:Leak
   match-leak-kinds: definite
   fun:malloc_zone_malloc
   fun:_CFRuntimeCreateInstance
   fun:CFBasicHashCreate
   fun:__CFSetCreateGeneric
   fun:CFSetCreate
   fun:_GLOBAL__sub_I_ClassicURLConnection.cpp
   fun:_ZN16ImageLoaderMachO18doModInitFunctionsERKN11ImageLoader11LinkContextE
   fun:_ZN16ImageLoaderMachO16doInitializationERKN11ImageLoader11LinkContextE
   fun:_ZN11ImageLoader23recursiveInitializationERKNS_11LinkContextEjRNS_21InitializerTimingListERNS_15UninitedUpwardsE
   fun:_ZN11ImageLoader23recursiveInitializationERKNS_11LinkContextEjRNS_21InitializerTimingListERNS_15UninitedUpwardsE
   fun:_ZN11ImageLoader23recursiveInitializationERKNS_11LinkContextEjRNS_21InitializerTimingListERNS_15UninitedUpwardsE
   fun:_ZN11ImageLoader23recursiveInitializationERKNS_11LinkContextEjRNS_21InitializerTimingListERNS_15UninitedUpwardsE
}
{
   <insert_a_suppression_name_here>
   Memcheck:Leak
   match-leak-kinds: indirect
   fun:malloc_zone_malloc
   fun:__CFBasicHashRehash
   fun:CFSetCreate
   fun:_GLOBAL__sub_I_TubeManager.cpp
   fun:_ZN16ImageLoaderMachO18doModInitFunctionsERKN11ImageLoader11LinkContextE
   fun:_ZN16ImageLoaderMachO16doInitializationERKN11ImageLoader11LinkContextE
   fun:_ZN11ImageLoader23recursiveInitializationERKNS_11LinkContextEjRNS_21InitializerTimingListERNS_15UninitedUpwardsE
   fun:_ZN11ImageLoader23recursiveInitializationERKNS_11LinkContextEjRNS_21InitializerTimingListERNS_15UninitedUpwardsE
   fun:_ZN11ImageLoader23recursiveInitializationERKNS_11LinkContextEjRNS_21InitializerTimingListERNS_15UninitedUpwardsE
   fun:_ZN11ImageLoader23recursiveInitializationERKNS_11LinkContextEjRNS_21InitializerTimingListERNS_15UninitedUpwardsE
   fun:_ZN11ImageLoader23recursiveInitializationERKNS_11LinkContextEjRNS_21InitializerTimingListERNS_15UninitedUpwardsE
   fun:_ZN11ImageLoader23recursiveInitializationERKNS_11LinkContextEjRNS_21InitializerTimingListERNS_15UninitedUpwardsE
}
{
   <insert_a_suppression_name_here>
   Memcheck:Leak
   match-leak-kinds: reachable
   fun:calloc
   fun:_ZL12_NXMapMemberP11_NXMapTablePKvPPv
   fun:hasLoadMethods
   fun:_ZL16attachCategoriesP10objc_classP26locstamped_category_list_tb
   fun:-[NSThread init]
   fun:____NSThreads_block_invoke
   fun:_dispatch_client_callout
   fun:dispatch_once_f
   fun:_NSThreadGet0
   fun:_NSInitializePlatform
   fun:cache_fill
   fun:NXMapRemove
}
{
   <insert_a_suppression_name_here>
   Memcheck:Leak
   match-leak-kinds: definite
   fun:malloc_zone_malloc
   fun:_CFRuntimeCreateInstance
   fun:CFBasicHashCreate
   fun:__CFSetCreateGeneric
   fun:CFSetCreate
   fun:_GLOBAL__sub_I_HTTP2Stream.cpp
   fun:_ZN16ImageLoaderMachO18doModInitFunctionsERKN11ImageLoader11LinkContextE
   fun:_ZN16ImageLoaderMachO16doInitializationERKN11ImageLoader11LinkContextE
   fun:_ZN11ImageLoader23recursiveInitializationERKNS_11LinkContextEjRNS_21InitializerTimingListERNS_15UninitedUpwardsE
   fun:_ZN11ImageLoader23recursiveInitializationERKNS_11LinkContextEjRNS_21InitializerTimingListERNS_15UninitedUpwardsE
   fun:_ZN11ImageLoader23recursiveInitializationERKNS_11LinkContextEjRNS_21InitializerTimingListERNS_15UninitedUpwardsE
   fun:_ZN11ImageLoader23recursiveInitializationERKNS_11LinkContextEjRNS_21InitializerTimingListERNS_15UninitedUpwardsE
}
{
   <insert_a_suppression_name_here>
   Memcheck:Leak
   match-leak-kinds: reachable
   fun:calloc
   fun:_class_getNonMetaClass
   fun:lookUpImpOrForward
   fun:objc_msgSendSuper_stret
   fun:class_createInstance
   fun:_ZL16attachCategoriesP10objc_classP26locstamped_category_list_tb
   fun:_NSToDoAtProcessStart
   fun:_NSInitializePlatform
   fun:cache_fill
   fun:NXMapRemove
   fun:_ZN4dyldL12notifySingleE17dyld_image_statesPK11ImageLoader
   fun:_ZN11ImageLoader23recursiveInitializationERKNS_11LinkContextEjRNS_21InitializerTimingListERNS_15UninitedUpwardsE
}
{
   <insert_a_suppression_name_here>
   Memcheck:Leak
   match-leak-kinds: definite
   fun:malloc
   fun:_Znwm
   fun:_ZN2cv3Mat19getDefaultAllocatorEv
   fun:_ZN2cv3Mat6createEiPKii
   fun:_ZN2cvL7imread_ERKNS_6StringEiiPNS_3MatE
   fun:_ZN2cv6imreadERKNS_6StringEi
   fun:_ZNK12ImageService9loadImageERK12ResolvedFile
   fun:_ZN31ImageFilterConfigurationContext9loadImageEP9lua_State
   fun:luaD_precall
   fun:luaV_execute
   fun:luaD_call
   fun:luaD_callnoyield
}
{
   <insert_a_suppression_name_here>
   Memcheck:Leak
   match-leak-kinds: indirect
   fun:malloc_zone_malloc
   fun:__CFBasicHashRehash
   fun:CFSetCreate
   fun:_GLOBAL__sub_I_CFNetwork.c
   fun:_ZN16ImageLoaderMachO18doModInitFunctionsERKN11ImageLoader11LinkContextE
   fun:_ZN16ImageLoaderMachO16doInitializationERKN11ImageLoader11LinkContextE
   fun:_ZN11ImageLoader23recursiveInitializationERKNS_11LinkContextEjRNS_21InitializerTimingListERNS_15UninitedUpwardsE
   fun:_ZN11ImageLoader23recursiveInitializationERKNS_11LinkContextEjRNS_21InitializerTimingListERNS_15UninitedUpwardsE
   fun:_ZN11ImageLoader23recursiveInitializationERKNS_11LinkContextEjRNS_21InitializerTimingListERNS_15UninitedUpwardsE
   fun:_ZN11ImageLoader23recursiveInitializationERKNS_11LinkContextEjRNS_21InitializerTimingListERNS_15UninitedUpwardsE
   fun:_ZN11ImageLoader23recursiveInitializationERKNS_11LinkContextEjRNS_21InitializerTimingListERNS_15UninitedUpwardsE
   fun:_ZN11ImageLoader23recursiveInitializationERKNS_11LinkContextEjRNS_21InitializerTimingListERNS_15UninitedUpwardsE
}
{
   <insert_a_suppression_name_here>
   Memcheck:Leak
   match-leak-kinds: indirect
   fun:malloc_zone_malloc
   fun:__CFBasicHashRehash
   fun:CFSetCreate
   fun:_GLOBAL__sub_I_CFURLAuthChallenge.c
   fun:_ZN16ImageLoaderMachO18doModInitFunctionsERKN11ImageLoader11LinkContextE
   fun:_ZN16ImageLoaderMachO16doInitializationERKN11ImageLoader11LinkContextE
   fun:_ZN11ImageLoader23recursiveInitializationERKNS_11LinkContextEjRNS_21InitializerTimingListERNS_15UninitedUpwardsE
   fun:_ZN11ImageLoader23recursiveInitializationERKNS_11LinkContextEjRNS_21InitializerTimingListERNS_15UninitedUpwardsE
   fun:_ZN11ImageLoader23recursiveInitializationERKNS_11LinkContextEjRNS_21InitializerTimingListERNS_15UninitedUpwardsE
   fun:_ZN11ImageLoader23recursiveInitializationERKNS_11LinkContextEjRNS_21InitializerTimingListERNS_15UninitedUpwardsE
   fun:_ZN11ImageLoader23recursiveInitializationERKNS_11LinkContextEjRNS_21InitializerTimingListERNS_15UninitedUpwardsE
   fun:_ZN11ImageLoader23recursiveInitializationERKNS_11LinkContextEjRNS_21InitializerTimingListERNS_15UninitedUpwardsE
}
{
   <insert_a_suppression_name_here>
   Memcheck:Leak
   match-leak-kinds: indirect
   fun:malloc_zone_malloc
   fun:__CFBasicHashRehash
   fun:CFSetCreate
   fun:_GLOBAL__sub_I_HTTPReadStream.cpp
   fun:_ZN16ImageLoaderMachO18doModInitFunctionsERKN11ImageLoader11LinkContextE
   fun:_ZN16ImageLoaderMachO16doInitializationERKN11ImageLoader11LinkContextE
   fun:_ZN11ImageLoader23recursiveInitializationERKNS_11LinkContextEjRNS_21InitializerTimingListERNS_15UninitedUpwardsE
   fun:_ZN11ImageLoader23recursiveInitializationERKNS_11LinkContextEjRNS_21InitializerTimingListERNS_15UninitedUpwardsE
   fun:_ZN11ImageLoader23recursiveInitializationERKNS_11LinkContextEjRNS_21InitializerTimingListERNS_15UninitedUpwardsE
   fun:_ZN11ImageLoader23recursiveInitializationERKNS_11LinkContextEjRNS_21InitializerTimingListERNS_15UninitedUpwardsE
   fun:_ZN11ImageLoader23recursiveInitializationERKNS_11LinkContextEjRNS_21InitializerTimingListERNS_15UninitedUpwardsE
   fun:_ZN11ImageLoader23recursiveInitializationERKNS_11LinkContextEjRNS_21InitializerTimingListERNS_15UninitedUpwardsE
}
{
   <insert_a_suppression_name_here>
   Memcheck:Leak
   match-leak-kinds: reachable
   fun:calloc
   fun:NXMapRemove
   fun:_os_object_alloc_realized
   fun:xpc_dictionary_create
   fun:_xpc_dyld_image_callback
   fun:_ZN4dyldL18notifyBatchPartialE17dyld_image_statesbPFPKcS0_jPK15dyld_image_infoE
   fun:_ZN11ImageLoader4linkERKNS_11LinkContextEbbbRKNS_10RPathChainE
   fun:_ZN4dyld4linkEP11ImageLoaderbbRKNS0_10RPathChainE
   fun:dlopen
   fun:dlopen
   fun:heim_load_frameworks
   fun:_ZN16ImageLoaderMachO18doModInitFunctionsERKN11ImageLoader11LinkContextE
}
{
   <insert_a_suppression_name_here>
   Memcheck:Leak
   match-leak-kinds: reachable
   fun:calloc
   fun:_class_getNonMetaClass
   fun:lookUpImpOrForward
   fun:objc_msgSendSuper_stret
   fun:class_createInstance
   fun:_ZL16attachCategoriesP10objc_classP26locstamped_category_list_tb
   fun:__31+[DDGeoSource tableNameMapping]_block_invoke
   fun:_dispatch_client_callout
   fun:dispatch_once_f
   fun:+[DDGeoSource tableNameMapping]
   fun:+[DDGeoSource tableNames]
   fun:+[DDDynamicSource registerDynamicSourceClass:forSourceKind:]
}
{
   <insert_a_suppression_name_here>
   Memcheck:Leak
   match-leak-kinds: indirect
   fun:malloc_zone_malloc
   fun:__CFBasicHashRehash
   fun:CFSetCreate
   fun:_GLOBAL__sub_I_SHTTP2ConnectionCache.cpp
   fun:_ZN16ImageLoaderMachO18doModInitFunctionsERKN11ImageLoader11LinkContextE
   fun:_ZN16ImageLoaderMachO16doInitializationERKN11ImageLoader11LinkContextE
   fun:_ZN11ImageLoader23recursiveInitializationERKNS_11LinkContextEjRNS_21InitializerTimingListERNS_15UninitedUpwardsE
   fun:_ZN11ImageLoader23recursiveInitializationERKNS_11LinkContextEjRNS_21InitializerTimingListERNS_15UninitedUpwardsE
   fun:_ZN11ImageLoader23recursiveInitializationERKNS_11LinkContextEjRNS_21InitializerTimingListERNS_15UninitedUpwardsE
   fun:_ZN11ImageLoader23recursiveInitializationERKNS_11LinkContextEjRNS_21InitializerTimingListERNS_15UninitedUpwardsE
   fun:_ZN11ImageLoader23recursiveInitializationERKNS_11LinkContextEjRNS_21InitializerTimingListERNS_15UninitedUpwardsE
   fun:_ZN11ImageLoader23recursiveInitializationERKNS_11LinkContextEjRNS_21InitializerTimingListERNS_15UninitedUpwardsE
}
{
   <insert_a_suppression_name_here>
   Memcheck:Leak
   match-leak-kinds: reachable
   fun:calloc
   fun:_class_getNonMetaClass
   fun:lookUpImpOrForward
   fun:objc_msgSendSuper_stret
   fun:class_createInstance
   fun:_ZL16attachCategoriesP10objc_classP26locstamped_category_list_tb
   fun:-[NSDictionary allKeys]
   fun:+[DDDynamicSource registerDynamicSourceClass:forSourceKind:]
   fun:+[DDGeoSource load]
   fun:_ZL19_finishInitializingP10objc_classS0_
   fun:NXMapRemove
   fun:_ZN4dyldL12notifySingleE17dyld_image_statesPK11ImageLoader
}
{
   <insert_a_suppression_name_here>
   Memcheck:Leak
   match-leak-kinds: reachable
   fun:calloc
   fun:_class_getNonMetaClass
   fun:lookUpImpOrForward
   fun:objc_msgSendSuper2_stret
   fun:class_createInstance
   fun:_ZL16attachCategoriesP10objc_classP26locstamped_category_list_tb
   fun:+[NSDictionary dictionaryWithObjects:forKeys:count:]
   fun:__31+[DDGeoSource tableNameMapping]_block_invoke
   fun:_dispatch_client_callout
   fun:dispatch_once_f
   fun:+[DDGeoSource tableNameMapping]
   fun:+[DDGeoSource tableNames]
}
{
   <insert_a_suppression_name_here>
   Memcheck:Leak
   match-leak-kinds: definite
   fun:malloc_zone_malloc
   fun:_CFRuntimeCreateInstance
   fun:CFBasicHashCreate
   fun:__CFSetCreateGeneric
   fun:CFSetCreate
   fun:_GLOBAL__sub_I_LocalStreamTask.mm
   fun:_ZN16ImageLoaderMachO18doModInitFunctionsERKN11ImageLoader11LinkContextE
   fun:_ZN16ImageLoaderMachO16doInitializationERKN11ImageLoader11LinkContextE
   fun:_ZN11ImageLoader23recursiveInitializationERKNS_11LinkContextEjRNS_21InitializerTimingListERNS_15UninitedUpwardsE
   fun:_ZN11ImageLoader23recursiveInitializationERKNS_11LinkContextEjRNS_21InitializerTimingListERNS_15UninitedUpwardsE
   fun:_ZN11ImageLoader23recursiveInitializationERKNS_11LinkContextEjRNS_21InitializerTimingListERNS_15UninitedUpwardsE
   fun:_ZN11ImageLoader23recursiveInitializationERKNS_11LinkContextEjRNS_21InitializerTimingListERNS_15UninitedUpwardsE
}
{
   <insert_a_suppression_name_here>
   Memcheck:Leak
   match-leak-kinds: indirect
   fun:malloc_zone_malloc
   fun:__CFBasicHashRehash
   fun:CFSetCreate
   fun:_GLOBAL__sub_I_URLCredentialKerberosTicket.cpp
   fun:_ZN16ImageLoaderMachO18doModInitFunctionsERKN11ImageLoader11LinkContextE
   fun:_ZN16ImageLoaderMachO16doInitializationERKN11ImageLoader11LinkContextE
   fun:_ZN11ImageLoader23recursiveInitializationERKNS_11LinkContextEjRNS_21InitializerTimingListERNS_15UninitedUpwardsE
   fun:_ZN11ImageLoader23recursiveInitializationERKNS_11LinkContextEjRNS_21InitializerTimingListERNS_15UninitedUpwardsE
   fun:_ZN11ImageLoader23recursiveInitializationERKNS_11LinkContextEjRNS_21InitializerTimingListERNS_15UninitedUpwardsE
   fun:_ZN11ImageLoader23recursiveInitializationERKNS_11LinkContextEjRNS_21InitializerTimingListERNS_15UninitedUpwardsE
   fun:_ZN11ImageLoader23recursiveInitializationERKNS_11LinkContextEjRNS_21InitializerTimingListERNS_15UninitedUpwardsE
   fun:_ZN11ImageLoader23recursiveInitializationERKNS_11LinkContextEjRNS_21InitializerTimingListERNS_15UninitedUpwardsE
}
{
   <insert_a_suppression_name_here>
   Memcheck:Leak
   match-leak-kinds: definite
   fun:malloc_zone_malloc
   fun:__CFUniCharLoadDecompositionTable
   fun:CFUniCharDecompose
   fun:CFStringGetFileSystemRepresentation
   fun:_CFURLCreateWithFileSystemPath
   fun:_CFBundleCopyBundleURLForExecutableURL
   fun:_CFBundleGetMainBundleAlreadyLocked
   fun:CFBundleGetMainBundle
   fun:___bundleInfo_block_invoke
   fun:_dispatch_client_callout
   fun:dispatch_once_f
   fun:_CFAppVersionCheckLessThan
}
{
   <insert_a_suppression_name_here>
   Memcheck:Leak
   match-leak-kinds: definite
   fun:malloc_zone_malloc
   fun:_CFRuntimeCreateInstance
   fun:CFBasicHashCreate
   fun:__CFSetCreateGeneric
   fun:CFSetCreate
   fun:_GLOBAL__sub_I_URLCredentialXMobileMeAuthToken.cpp
   fun:_ZN16ImageLoaderMachO18doModInitFunctionsERKN11ImageLoader11LinkContextE
   fun:_ZN16ImageLoaderMachO16doInitializationERKN11ImageLoader11LinkContextE
   fun:_ZN11ImageLoader23recursiveInitializationERKNS_11LinkContextEjRNS_21InitializerTimingListERNS_15UninitedUpwardsE
   fun:_ZN11ImageLoader23recursiveInitializationERKNS_11LinkContextEjRNS_21InitializerTimingListERNS_15UninitedUpwardsE
   fun:_ZN11ImageLoader23recursiveInitializationERKNS_11LinkContextEjRNS_21InitializerTimingListERNS_15UninitedUpwardsE
   fun:_ZN11ImageLoader23recursiveInitializationERKNS_11LinkContextEjRNS_21InitializerTimingListERNS_15UninitedUpwardsE
}
{
   <insert_a_suppression_name_here>
   Memcheck:Leak
   match-leak-kinds: definite
   fun:malloc_zone_malloc
   fun:_CFRuntimeCreateInstance
   fun:CFBasicHashCreate
   fun:__CFSetCreateGeneric
   fun:CFSetCreate
   fun:_GLOBAL__sub_I_SHTTPConnectionCache.cpp
   fun:_ZN16ImageLoaderMachO18doModInitFunctionsERKN11ImageLoader11LinkContextE
   fun:_ZN16ImageLoaderMachO16doInitializationERKN11ImageLoader11LinkContextE
   fun:_ZN11ImageLoader23recursiveInitializationERKNS_11LinkContextEjRNS_21InitializerTimingListERNS_15UninitedUpwardsE
   fun:_ZN11ImageLoader23recursiveInitializationERKNS_11LinkContextEjRNS_21InitializerTimingListERNS_15UninitedUpwardsE
   fun:_ZN11ImageLoader23recursiveInitializationERKNS_11LinkContextEjRNS_21InitializerTimingListERNS_15UninitedUpwardsE
   fun:_ZN11ImageLoader23recursiveInitializationERKNS_11LinkContextEjRNS_21InitializerTimingListERNS_15UninitedUpwardsE
}
{
   <insert_a_suppression_name_here>
   Memcheck:Leak
   match-leak-kinds: indirect
   fun:malloc_zone_malloc
   fun:__CFBasicHashRehash
   fun:CFSetCreate
   fun:_GLOBAL__sub_I_CFNetworkInternalExternal.cpp
   fun:_ZN16ImageLoaderMachO18doModInitFunctionsERKN11ImageLoader11LinkContextE
   fun:_ZN16ImageLoaderMachO16doInitializationERKN11ImageLoader11LinkContextE
   fun:_ZN11ImageLoader23recursiveInitializationERKNS_11LinkContextEjRNS_21InitializerTimingListERNS_15UninitedUpwardsE
   fun:_ZN11ImageLoader23recursiveInitializationERKNS_11LinkContextEjRNS_21InitializerTimingListERNS_15UninitedUpwardsE
   fun:_ZN11ImageLoader23recursiveInitializationERKNS_11LinkContextEjRNS_21InitializerTimingListERNS_15UninitedUpwardsE
   fun:_ZN11ImageLoader23recursiveInitializationERKNS_11LinkContextEjRNS_21InitializerTimingListERNS_15UninitedUpwardsE
   fun:_ZN11ImageLoader23recursiveInitializationERKNS_11LinkContextEjRNS_21InitializerTimingListERNS_15UninitedUpwardsE
   fun:_ZN11ImageLoader23recursiveInitializationERKNS_11LinkContextEjRNS_21InitializerTimingListERNS_15UninitedUpwardsE
}
{
   <insert_a_suppression_name_here>
   Memcheck:Leak
   match-leak-kinds: definite
   fun:malloc_zone_malloc
   fun:_CFRuntimeCreateInstance
   fun:CFBasicHashCreate
   fun:__CFDictionaryCreateGeneric
   fun:CFDictionaryCreateMutable
   fun:____NSThreads_block_invoke
   fun:_dispatch_client_callout
   fun:dispatch_once_f
   fun:_NSThreadGet0
   fun:_NSInitializePlatform
   fun:cache_fill
   fun:NXMapRemove
}
{
   <insert_a_suppression_name_here>
   Memcheck:Leak
   match-leak-kinds: indirect
   fun:malloc_zone_malloc
   fun:__CFBasicHashRehash
   fun:CFSetCreate
   fun:_GLOBAL__sub_I_SPDYConnection.cpp
   fun:_ZN16ImageLoaderMachO18doModInitFunctionsERKN11ImageLoader11LinkContextE
   fun:_ZN16ImageLoaderMachO16doInitializationERKN11ImageLoader11LinkContextE
   fun:_ZN11ImageLoader23recursiveInitializationERKNS_11LinkContextEjRNS_21InitializerTimingListERNS_15UninitedUpwardsE
   fun:_ZN11ImageLoader23recursiveInitializationERKNS_11LinkContextEjRNS_21InitializerTimingListERNS_15UninitedUpwardsE
   fun:_ZN11ImageLoader23recursiveInitializationERKNS_11LinkContextEjRNS_21InitializerTimingListERNS_15UninitedUpwardsE
   fun:_ZN11ImageLoader23recursiveInitializationERKNS_11LinkContextEjRNS_21InitializerTimingListERNS_15UninitedUpwardsE
   fun:_ZN11ImageLoader23recursiveInitializationERKNS_11LinkContextEjRNS_21InitializerTimingListERNS_15UninitedUpwardsE
   fun:_ZN11ImageLoader23recursiveInitializationERKNS_11LinkContextEjRNS_21InitializerTimingListERNS_15UninitedUpwardsE
}
{
   <insert_a_suppression_name_here>
   Memcheck:Leak
   match-leak-kinds: indirect
   fun:malloc_zone_malloc
   fun:__CFBasicHashRehash
   fun:CFSetCreate
   fun:_GLOBAL__sub_I_HTTPNetStreamInfo.cpp
   fun:_ZN16ImageLoaderMachO18doModInitFunctionsERKN11ImageLoader11LinkContextE
   fun:_ZN16ImageLoaderMachO16doInitializationERKN11ImageLoader11LinkContextE
   fun:_ZN11ImageLoader23recursiveInitializationERKNS_11LinkContextEjRNS_21InitializerTimingListERNS_15UninitedUpwardsE
   fun:_ZN11ImageLoader23recursiveInitializationERKNS_11LinkContextEjRNS_21InitializerTimingListERNS_15UninitedUpwardsE
   fun:_ZN11ImageLoader23recursiveInitializationERKNS_11LinkContextEjRNS_21InitializerTimingListERNS_15UninitedUpwardsE
   fun:_ZN11ImageLoader23recursiveInitializationERKNS_11LinkContextEjRNS_21InitializerTimingListERNS_15UninitedUpwardsE
   fun:_ZN11ImageLoader23recursiveInitializationERKNS_11LinkContextEjRNS_21InitializerTimingListERNS_15UninitedUpwardsE
   fun:_ZN11ImageLoader23recursiveInitializationERKNS_11LinkContextEjRNS_21InitializerTimingListERNS_15UninitedUpwardsE
}
{
   <insert_a_suppression_name_here>
   Memcheck:Leak
   match-leak-kinds: definite
   fun:calloc
   fun:NXMapRemove
   fun:NSAllocateObject
   fun:_ZN12_GLOBAL__N_119AutoreleasePoolPage3popEPv
   fun:_NSToDoAtProcessStart
   fun:_NSInitializePlatform
   fun:cache_fill
   fun:NXMapRemove
   fun:_ZN4dyldL12notifySingleE17dyld_image_statesPK11ImageLoader
   fun:_ZN11ImageLoader23recursiveInitializationERKNS_11LinkContextEjRNS_21InitializerTimingListERNS_15UninitedUpwardsE
   fun:_ZN11ImageLoader23recursiveInitializationERKNS_11LinkContextEjRNS_21InitializerTimingListERNS_15UninitedUpwardsE
   fun:_ZN11ImageLoader23recursiveInitializationERKNS_11LinkContextEjRNS_21InitializerTimingListERNS_15UninitedUpwardsE
}
{
   <insert_a_suppression_name_here>
   Memcheck:Leak
   match-leak-kinds: definite
   fun:malloc_zone_malloc
   fun:_CFRuntimeCreateInstance
   fun:CFBasicHashCreate
   fun:__CFSetCreateGeneric
   fun:CFSetCreate
   fun:_GLOBAL__sub_I_HTTPNetStreamInfo.cpp
   fun:_ZN16ImageLoaderMachO18doModInitFunctionsERKN11ImageLoader11LinkContextE
   fun:_ZN16ImageLoaderMachO16doInitializationERKN11ImageLoader11LinkContextE
   fun:_ZN11ImageLoader23recursiveInitializationERKNS_11LinkContextEjRNS_21InitializerTimingListERNS_15UninitedUpwardsE
   fun:_ZN11ImageLoader23recursiveInitializationERKNS_11LinkContextEjRNS_21InitializerTimingListERNS_15UninitedUpwardsE
   fun:_ZN11ImageLoader23recursiveInitializationERKNS_11LinkContextEjRNS_21InitializerTimingListERNS_15UninitedUpwardsE
   fun:_ZN11ImageLoader23recursiveInitializationERKNS_11LinkContextEjRNS_21InitializerTimingListERNS_15UninitedUpwardsE
}
{
   <insert_a_suppression_name_here>
   Memcheck:Leak
   match-leak-kinds: definite
   fun:malloc_zone_malloc
   fun:_CFRuntimeCreateInstance
   fun:CFBasicHashCreate
   fun:__CFSetCreateGeneric
   fun:CFSetCreate
   fun:_GLOBAL__sub_I_CFNetworkErrors.c
   fun:_ZN16ImageLoaderMachO18doModInitFunctionsERKN11ImageLoader11LinkContextE
   fun:_ZN16ImageLoaderMachO16doInitializationERKN11ImageLoader11LinkContextE
   fun:_ZN11ImageLoader23recursiveInitializationERKNS_11LinkContextEjRNS_21InitializerTimingListERNS_15UninitedUpwardsE
   fun:_ZN11ImageLoader23recursiveInitializationERKNS_11LinkContextEjRNS_21InitializerTimingListERNS_15UninitedUpwardsE
   fun:_ZN11ImageLoader23recursiveInitializationERKNS_11LinkContextEjRNS_21InitializerTimingListERNS_15UninitedUpwardsE
   fun:_ZN11ImageLoader23recursiveInitializationERKNS_11LinkContextEjRNS_21InitializerTimingListERNS_15UninitedUpwardsE
}
{
   <insert_a_suppression_name_here>
   Memcheck:Leak
   match-leak-kinds: indirect
   fun:malloc_zone_malloc
   fun:__CFBasicHashRehash
   fun:__CFBasicHashAddValue
   fun:CFDictionarySetValue
   fun:____NSThreads_block_invoke
   fun:_dispatch_client_callout
   fun:dispatch_once_f
   fun:_NSThreadGet0
   fun:_NSInitializePlatform
   fun:cache_fill
   fun:NXMapRemove
   fun:_ZN4dyldL12notifySingleE17dyld_image_statesPK11ImageLoader
}
{
   <insert_a_suppression_name_here>
   Memcheck:Leak
   match-leak-kinds: definite
   fun:malloc_zone_malloc
   fun:_CFRuntimeCreateInstance
   fun:CFBasicHashCreate
   fun:__CFSetCreateGeneric
   fun:CFSetCreate
   fun:_GLOBAL__sub_I_PersistentCredentialStorage.cpp
   fun:_ZN16ImageLoaderMachO18doModInitFunctionsERKN11ImageLoader11LinkContextE
   fun:_ZN16ImageLoaderMachO16doInitializationERKN11ImageLoader11LinkContextE
   fun:_ZN11ImageLoader23recursiveInitializationERKNS_11LinkContextEjRNS_21InitializerTimingListERNS_15UninitedUpwardsE
   fun:_ZN11ImageLoader23recursiveInitializationERKNS_11LinkContextEjRNS_21InitializerTimingListERNS_15UninitedUpwardsE
   fun:_ZN11ImageLoader23recursiveInitializationERKNS_11LinkContextEjRNS_21InitializerTimingListERNS_15UninitedUpwardsE
   fun:_ZN11ImageLoader23recursiveInitializationERKNS_11LinkContextEjRNS_21InitializerTimingListERNS_15UninitedUpwardsE
}
{
   <insert_a_suppression_name_here>
   Memcheck:Leak
   match-leak-kinds: indirect
   fun:malloc_zone_malloc
   fun:__CFBasicHashRehash
   fun:CFSetCreate
   fun:_GLOBAL__sub_I_NSURLAuthenticationChallenge.mm
   fun:_ZN16ImageLoaderMachO18doModInitFunctionsERKN11ImageLoader11LinkContextE
   fun:_ZN16ImageLoaderMachO16doInitializationERKN11ImageLoader11LinkContextE
   fun:_ZN11ImageLoader23recursiveInitializationERKNS_11LinkContextEjRNS_21InitializerTimingListERNS_15UninitedUpwardsE
   fun:_ZN11ImageLoader23recursiveInitializationERKNS_11LinkContextEjRNS_21InitializerTimingListERNS_15UninitedUpwardsE
   fun:_ZN11ImageLoader23recursiveInitializationERKNS_11LinkContextEjRNS_21InitializerTimingListERNS_15UninitedUpwardsE
   fun:_ZN11ImageLoader23recursiveInitializationERKNS_11LinkContextEjRNS_21InitializerTimingListERNS_15UninitedUpwardsE
   fun:_ZN11ImageLoader23recursiveInitializationERKNS_11LinkContextEjRNS_21InitializerTimingListERNS_15UninitedUpwardsE
   fun:_ZN11ImageLoader23recursiveInitializationERKNS_11LinkContextEjRNS_21InitializerTimingListERNS_15UninitedUpwardsE
}
{
   <insert_a_suppression_name_here>
   Memcheck:Leak
   match-leak-kinds: indirect
   fun:malloc_zone_malloc
   fun:__CFBasicHashRehash
   fun:CFSetCreate
   fun:_GLOBAL__sub_I_HTTPFilter.cpp
   fun:_ZN16ImageLoaderMachO18doModInitFunctionsERKN11ImageLoader11LinkContextE
   fun:_ZN16ImageLoaderMachO16doInitializationERKN11ImageLoader11LinkContextE
   fun:_ZN11ImageLoader23recursiveInitializationERKNS_11LinkContextEjRNS_21InitializerTimingListERNS_15UninitedUpwardsE
   fun:_ZN11ImageLoader23recursiveInitializationERKNS_11LinkContextEjRNS_21InitializerTimingListERNS_15UninitedUpwardsE
   fun:_ZN11ImageLoader23recursiveInitializationERKNS_11LinkContextEjRNS_21InitializerTimingListERNS_15UninitedUpwardsE
   fun:_ZN11ImageLoader23recursiveInitializationERKNS_11LinkContextEjRNS_21InitializerTimingListERNS_15UninitedUpwardsE
   fun:_ZN11ImageLoader23recursiveInitializationERKNS_11LinkContextEjRNS_21InitializerTimingListERNS_15UninitedUpwardsE
   fun:_ZN11ImageLoader23recursiveInitializationERKNS_11LinkContextEjRNS_21InitializerTimingListERNS_15UninitedUpwardsE
}
{
   <insert_a_suppression_name_here>
   Memcheck:Leak
   match-leak-kinds: indirect
   fun:malloc_zone_malloc
   fun:__CFBasicHashRehash
   fun:CFSetCreate
   fun:_GLOBAL__sub_I_HTTPNetConnection_WithAuth.cpp
   fun:_ZN16ImageLoaderMachO18doModInitFunctionsERKN11ImageLoader11LinkContextE
   fun:_ZN16ImageLoaderMachO16doInitializationERKN11ImageLoader11LinkContextE
   fun:_ZN11ImageLoader23recursiveInitializationERKNS_11LinkContextEjRNS_21InitializerTimingListERNS_15UninitedUpwardsE
   fun:_ZN11ImageLoader23recursiveInitializationERKNS_11LinkContextEjRNS_21InitializerTimingListERNS_15UninitedUpwardsE
   fun:_ZN11ImageLoader23recursiveInitializationERKNS_11LinkContextEjRNS_21InitializerTimingListERNS_15UninitedUpwardsE
   fun:_ZN11ImageLoader23recursiveInitializationERKNS_11LinkContextEjRNS_21InitializerTimingListERNS_15UninitedUpwardsE
   fun:_ZN11ImageLoader23recursiveInitializationERKNS_11LinkContextEjRNS_21InitializerTimingListERNS_15UninitedUpwardsE
   fun:_ZN11ImageLoader23recursiveInitializationERKNS_11LinkContextEjRNS_21InitializerTimingListERNS_15UninitedUpwardsE
}
{
   <insert_a_suppression_name_here>
   Memcheck:Leak
   match-leak-kinds: indirect
   fun:malloc_zone_malloc
   fun:__CFBasicHashRehash
   fun:__CFInitialize
   fun:_ZN16ImageLoaderMachO11doImageInitERKN11ImageLoader11LinkContextE
   fun:_ZN16ImageLoaderMachO16doInitializationERKN11ImageLoader11LinkContextE
   fun:_ZN11ImageLoader23recursiveInitializationERKNS_11LinkContextEjRNS_21InitializerTimingListERNS_15UninitedUpwardsE
   fun:_ZN11ImageLoader23recursiveInitializationERKNS_11LinkContextEjRNS_21InitializerTimingListERNS_15UninitedUpwardsE
   fun:_ZN11ImageLoader23recursiveInitializationERKNS_11LinkContextEjRNS_21InitializerTimingListERNS_15UninitedUpwardsE
   fun:_ZN11ImageLoader23recursiveInitializationERKNS_11LinkContextEjRNS_21InitializerTimingListERNS_15UninitedUpwardsE
   fun:_ZN11ImageLoader23recursiveInitializationERKNS_11LinkContextEjRNS_21InitializerTimingListERNS_15UninitedUpwardsE
   fun:_ZN11ImageLoader23recursiveInitializationERKNS_11LinkContextEjRNS_21InitializerTimingListERNS_15UninitedUpwardsE
   fun:_ZN11ImageLoader23recursiveInitializationERKNS_11LinkContextEjRNS_21InitializerTimingListERNS_15UninitedUpwardsE
}
{
   <insert_a_suppression_name_here>
   Memcheck:Leak
   match-leak-kinds: indirect
   fun:malloc_zone_malloc
   fun:__CFBasicHashRehash
   fun:CFSetCreate
   fun:_GLOBAL__sub_I_STube.cpp
   fun:_ZN16ImageLoaderMachO18doModInitFunctionsERKN11ImageLoader11LinkContextE
   fun:_ZN16ImageLoaderMachO16doInitializationERKN11ImageLoader11LinkContextE
   fun:_ZN11ImageLoader23recursiveInitializationERKNS_11LinkContextEjRNS_21InitializerTimingListERNS_15UninitedUpwardsE
   fun:_ZN11ImageLoader23recursiveInitializationERKNS_11LinkContextEjRNS_21InitializerTimingListERNS_15UninitedUpwardsE
   fun:_ZN11ImageLoader23recursiveInitializationERKNS_11LinkContextEjRNS_21InitializerTimingListERNS_15UninitedUpwardsE
   fun:_ZN11ImageLoader23recursiveInitializationERKNS_11LinkContextEjRNS_21InitializerTimingListERNS_15UninitedUpwardsE
   fun:_ZN11ImageLoader23recursiveInitializationERKNS_11LinkContextEjRNS_21InitializerTimingListERNS_15UninitedUpwardsE
   fun:_ZN11ImageLoader23recursiveInitializationERKNS_11LinkContextEjRNS_21InitializerTimingListERNS_15UninitedUpwardsE
}
{
   <insert_a_suppression_name_here>
   Memcheck:Leak
   match-leak-kinds: indirect
   fun:malloc_zone_malloc
   fun:__CFBasicHashRehash
   fun:CFSetCreate
   fun:_GLOBAL__sub_I_CFHTTPAuthentication.c
   fun:_ZN16ImageLoaderMachO18doModInitFunctionsERKN11ImageLoader11LinkContextE
   fun:_ZN16ImageLoaderMachO16doInitializationERKN11ImageLoader11LinkContextE
   fun:_ZN11ImageLoader23recursiveInitializationERKNS_11LinkContextEjRNS_21InitializerTimingListERNS_15UninitedUpwardsE
   fun:_ZN11ImageLoader23recursiveInitializationERKNS_11LinkContextEjRNS_21InitializerTimingListERNS_15UninitedUpwardsE
   fun:_ZN11ImageLoader23recursiveInitializationERKNS_11LinkContextEjRNS_21InitializerTimingListERNS_15UninitedUpwardsE
   fun:_ZN11ImageLoader23recursiveInitializationERKNS_11LinkContextEjRNS_21InitializerTimingListERNS_15UninitedUpwardsE
   fun:_ZN11ImageLoader23recursiveInitializationERKNS_11LinkContextEjRNS_21InitializerTimingListERNS_15UninitedUpwardsE
   fun:_ZN11ImageLoader23recursiveInitializationERKNS_11LinkContextEjRNS_21InitializerTimingListERNS_15UninitedUpwardsE
}
{
   <insert_a_suppression_name_here>
   Memcheck:Leak
   match-leak-kinds: indirect
   fun:malloc_zone_malloc
   fun:_CFRuntimeCreateInstance
   fun:CFBasicHashCreate
   fun:__CFDictionaryCreateGeneric
   fun:CFDictionaryCreateMutable
   fun:_CFBundleInitializeMainBundleInfoDictionaryAlreadyLocked
   fun:_CFBundleGetMainBundleAlreadyLocked
   fun:CFBundleGetMainBundle
   fun:___bundleInfo_block_invoke
   fun:_dispatch_client_callout
   fun:dispatch_once_f
   fun:_CFAppVersionCheckLessThan
}
{
   <insert_a_suppression_name_here>
   Memcheck:Leak
   match-leak-kinds: indirect
   fun:malloc_zone_malloc
   fun:__CFBasicHashRehash
   fun:CFSetCreate
   fun:_GLOBAL__sub_I_URLCredentialServerTrust.cpp
   fun:_ZN16ImageLoaderMachO18doModInitFunctionsERKN11ImageLoader11LinkContextE
   fun:_ZN16ImageLoaderMachO16doInitializationERKN11ImageLoader11LinkContextE
   fun:_ZN11ImageLoader23recursiveInitializationERKNS_11LinkContextEjRNS_21InitializerTimingListERNS_15UninitedUpwardsE
   fun:_ZN11ImageLoader23recursiveInitializationERKNS_11LinkContextEjRNS_21InitializerTimingListERNS_15UninitedUpwardsE
   fun:_ZN11ImageLoader23recursiveInitializationERKNS_11LinkContextEjRNS_21InitializerTimingListERNS_15UninitedUpwardsE
   fun:_ZN11ImageLoader23recursiveInitializationERKNS_11LinkContextEjRNS_21InitializerTimingListERNS_15UninitedUpwardsE
   fun:_ZN11ImageLoader23recursiveInitializationERKNS_11LinkContextEjRNS_21InitializerTimingListERNS_15UninitedUpwardsE
   fun:_ZN11ImageLoader23recursiveInitializationERKNS_11LinkContextEjRNS_21InitializerTimingListERNS_15UninitedUpwardsE
}
{
   <insert_a_suppression_name_here>
   Memcheck:Leak
   match-leak-kinds: possible
   fun:malloc_zone_calloc
   fun:NXCreateMapTable
   fun:_ZL12realizeClassP10objc_class
   fun:hasLoadMethods
   fun:_ZL16attachCategoriesP10objc_classP26locstamped_category_list_tb
   fun:_ZN12_GLOBAL__N_119AutoreleasePoolPage3popEPv
   fun:-[NSThread init]
   fun:____NSThreads_block_invoke
   fun:_dispatch_client_callout
   fun:dispatch_once_f
   fun:_NSThreadGet0
   fun:_NSInitializePlatform
}
{
   <insert_a_suppression_name_here>
   Memcheck:Leak
   match-leak-kinds: indirect
   fun:malloc_zone_malloc
   fun:__CFBasicHashRehash
   fun:CFSetCreate
   fun:_GLOBAL__sub_I_SHTTPConnectionCacheEntry.cpp
   fun:_ZN16ImageLoaderMachO18doModInitFunctionsERKN11ImageLoader11LinkContextE
   fun:_ZN16ImageLoaderMachO16doInitializationERKN11ImageLoader11LinkContextE
   fun:_ZN11ImageLoader23recursiveInitializationERKNS_11LinkContextEjRNS_21InitializerTimingListERNS_15UninitedUpwardsE
   fun:_ZN11ImageLoader23recursiveInitializationERKNS_11LinkContextEjRNS_21InitializerTimingListERNS_15UninitedUpwardsE
   fun:_ZN11ImageLoader23recursiveInitializationERKNS_11LinkContextEjRNS_21InitializerTimingListERNS_15UninitedUpwardsE
   fun:_ZN11ImageLoader23recursiveInitializationERKNS_11LinkContextEjRNS_21InitializerTimingListERNS_15UninitedUpwardsE
   fun:_ZN11ImageLoader23recursiveInitializationERKNS_11LinkContextEjRNS_21InitializerTimingListERNS_15UninitedUpwardsE
   fun:_ZN11ImageLoader23recursiveInitializationERKNS_11LinkContextEjRNS_21InitializerTimingListERNS_15UninitedUpwardsE
}
{
   <insert_a_suppression_name_here>
   Memcheck:Leak
   match-leak-kinds: indirect
   fun:malloc_zone_malloc
   fun:_CFRuntimeCreateInstance
   fun:_CFURLCreateWithFileSystemRepresentation
   fun:_CFBundleCreate
   fun:_CFBundleGetMainBundleAlreadyLocked
   fun:CFBundleGetMainBundle
   fun:___bundleInfo_block_invoke
   fun:_dispatch_client_callout
   fun:dispatch_once_f
   fun:_CFAppVersionCheckLessThan
   fun:__25+[NSArray allocWithZone:]_block_invoke
   fun:_dispatch_client_callout
}
{
   <insert_a_suppression_name_here>
   Memcheck:Leak
   match-leak-kinds: definite
   fun:malloc_zone_malloc
   fun:_CFRuntimeCreateInstance
   fun:CFBasicHashCreate
   fun:__CFSetCreateGeneric
   fun:CFSetCreate
   fun:_GLOBAL__sub_I_CFURLCredential.c
   fun:_ZN16ImageLoaderMachO18doModInitFunctionsERKN11ImageLoader11LinkContextE
   fun:_ZN16ImageLoaderMachO16doInitializationERKN11ImageLoader11LinkContextE
   fun:_ZN11ImageLoader23recursiveInitializationERKNS_11LinkContextEjRNS_21InitializerTimingListERNS_15UninitedUpwardsE
   fun:_ZN11ImageLoader23recursiveInitializationERKNS_11LinkContextEjRNS_21InitializerTimingListERNS_15UninitedUpwardsE
   fun:_ZN11ImageLoader23recursiveInitializationERKNS_11LinkContextEjRNS_21InitializerTimingListERNS_15UninitedUpwardsE
   fun:_ZN11ImageLoader23recursiveInitializationERKNS_11LinkContextEjRNS_21InitializerTimingListERNS_15UninitedUpwardsE
}
{
   <insert_a_suppression_name_here>
   Memcheck:Leak
   match-leak-kinds: indirect
   fun:malloc_zone_malloc
   fun:__CFBasicHashRehash
   fun:CFSetCreate
   fun:_GLOBAL__sub_I_URLDownload.cpp
   fun:_ZN16ImageLoaderMachO18doModInitFunctionsERKN11ImageLoader11LinkContextE
   fun:_ZN16ImageLoaderMachO16doInitializationERKN11ImageLoader11LinkContextE
   fun:_ZN11ImageLoader23recursiveInitializationERKNS_11LinkContextEjRNS_21InitializerTimingListERNS_15UninitedUpwardsE
   fun:_ZN11ImageLoader23recursiveInitializationERKNS_11LinkContextEjRNS_21InitializerTimingListERNS_15UninitedUpwardsE
   fun:_ZN11ImageLoader23recursiveInitializationERKNS_11LinkContextEjRNS_21InitializerTimingListERNS_15UninitedUpwardsE
   fun:_ZN11ImageLoader23recursiveInitializationERKNS_11LinkContextEjRNS_21InitializerTimingListERNS_15UninitedUpwardsE
   fun:_ZN11ImageLoader23recursiveInitializationERKNS_11LinkContextEjRNS_21InitializerTimingListERNS_15UninitedUpwardsE
   fun:_ZN11ImageLoader23recursiveInitializationERKNS_11LinkContextEjRNS_21InitializerTimingListERNS_15UninitedUpwardsE
}
{
   <insert_a_suppression_name_here>
   Memcheck:Leak
   match-leak-kinds: reachable
   fun:calloc
   fun:_class_getNonMetaClass
   fun:lookUpImpOrForward
   fun:objc_msgSendSuper_stret
   fun:class_createInstance
   fun:_ZL16attachCategoriesP10objc_classP26locstamped_category_list_tb
   fun:+[NSMergePolicy load]
   fun:_ZL19_finishInitializingP10objc_classS0_
   fun:NXMapRemove
   fun:_ZN4dyldL12notifySingleE17dyld_image_statesPK11ImageLoader
   fun:_ZN11ImageLoader23recursiveInitializationERKNS_11LinkContextEjRNS_21InitializerTimingListERNS_15UninitedUpwardsE
   fun:_ZN11ImageLoader23recursiveInitializationERKNS_11LinkContextEjRNS_21InitializerTimingListERNS_15UninitedUpwardsE
}
{
   <insert_a_suppression_name_here>
   Memcheck:Leak
   match-leak-kinds: definite
   fun:malloc_zone_malloc
   fun:_CFRuntimeCreateInstance
   fun:CFBasicHashCreate
   fun:__CFSetCreateGeneric
   fun:CFSetCreate
   fun:_GLOBAL__sub_I_HTTPReadFilter.cpp
   fun:_ZN16ImageLoaderMachO18doModInitFunctionsERKN11ImageLoader11LinkContextE
   fun:_ZN16ImageLoaderMachO16doInitializationERKN11ImageLoader11LinkContextE
   fun:_ZN11ImageLoader23recursiveInitializationERKNS_11LinkContextEjRNS_21InitializerTimingListERNS_15UninitedUpwardsE
   fun:_ZN11ImageLoader23recursiveInitializationERKNS_11LinkContextEjRNS_21InitializerTimingListERNS_15UninitedUpwardsE
   fun:_ZN11ImageLoader23recursiveInitializationERKNS_11LinkContextEjRNS_21InitializerTimingListERNS_15UninitedUpwardsE
   fun:_ZN11ImageLoader23recursiveInitializationERKNS_11LinkContextEjRNS_21InitializerTimingListERNS_15UninitedUpwardsE
}
{
   <insert_a_suppression_name_here>
   Memcheck:Leak
   match-leak-kinds: reachable
   fun:calloc
   fun:NXMapRemove
   fun:__CFAllocateObject2
   fun:+[__NSDictionaryI __new:::::]
   fun:-[__NSPlaceholderDictionary initWithObjects:forKeys:count:]
   fun:+[NSDictionary dictionaryWithObjects:forKeys:count:]
   fun:__31+[DDGeoSource tableNameMapping]_block_invoke
   fun:_dispatch_client_callout
   fun:dispatch_once_f
   fun:+[DDGeoSource tableNameMapping]
   fun:+[DDGeoSource tableNames]
   fun:+[DDDynamicSource registerDynamicSourceClass:forSourceKind:]
}
{
   <insert_a_suppression_name_here>
   Memcheck:Leak
   match-leak-kinds: possible
   fun:malloc
   fun:_ZL12realizeClassP10objc_class
   fun:_ZL12realizeClassP10objc_class
   fun:_ZL12realizeClassP10objc_class
   fun:objc_release
   fun:_NSToDoAtProcessStart
   fun:_NSInitializePlatform
   fun:cache_fill
   fun:NXMapRemove
   fun:_ZN4dyldL12notifySingleE17dyld_image_statesPK11ImageLoader
   fun:_ZN11ImageLoader23recursiveInitializationERKNS_11LinkContextEjRNS_21InitializerTimingListERNS_15UninitedUpwardsE
   fun:_ZN11ImageLoader23recursiveInitializationERKNS_11LinkContextEjRNS_21InitializerTimingListERNS_15UninitedUpwardsE
}
{
   <insert_a_suppression_name_here>
   Memcheck:Leak
   match-leak-kinds: definite
   fun:malloc_zone_malloc
   fun:_CFRuntimeCreateInstance
   fun:CFBasicHashCreate
   fun:__CFSetCreateGeneric
   fun:CFSetCreate
   fun:_GLOBAL__sub_I_HTTPProtocol.cpp
   fun:_ZN16ImageLoaderMachO18doModInitFunctionsERKN11ImageLoader11LinkContextE
   fun:_ZN16ImageLoaderMachO16doInitializationERKN11ImageLoader11LinkContextE
   fun:_ZN11ImageLoader23recursiveInitializationERKNS_11LinkContextEjRNS_21InitializerTimingListERNS_15UninitedUpwardsE
   fun:_ZN11ImageLoader23recursiveInitializationERKNS_11LinkContextEjRNS_21InitializerTimingListERNS_15UninitedUpwardsE
   fun:_ZN11ImageLoader23recursiveInitializationERKNS_11LinkContextEjRNS_21InitializerTimingListERNS_15UninitedUpwardsE
   fun:_ZN11ImageLoader23recursiveInitializationERKNS_11LinkContextEjRNS_21InitializerTimingListERNS_15UninitedUpwardsE
}
{
   <insert_a_suppression_name_here>
   Memcheck:Leak
   match-leak-kinds: indirect
   fun:malloc_zone_malloc
   fun:__CFBasicHashRehash
   fun:CFSetCreate
   fun:_GLOBAL__sub_I_URLCredentialClientCertificate.cpp
   fun:_ZN16ImageLoaderMachO18doModInitFunctionsERKN11ImageLoader11LinkContextE
   fun:_ZN16ImageLoaderMachO16doInitializationERKN11ImageLoader11LinkContextE
   fun:_ZN11ImageLoader23recursiveInitializationERKNS_11LinkContextEjRNS_21InitializerTimingListERNS_15UninitedUpwardsE
   fun:_ZN11ImageLoader23recursiveInitializationERKNS_11LinkContextEjRNS_21InitializerTimingListERNS_15UninitedUpwardsE
   fun:_ZN11ImageLoader23recursiveInitializationERKNS_11LinkContextEjRNS_21InitializerTimingListERNS_15UninitedUpwardsE
   fun:_ZN11ImageLoader23recursiveInitializationERKNS_11LinkContextEjRNS_21InitializerTimingListERNS_15UninitedUpwardsE
   fun:_ZN11ImageLoader23recursiveInitializationERKNS_11LinkContextEjRNS_21InitializerTimingListERNS_15UninitedUpwardsE
   fun:_ZN11ImageLoader23recursiveInitializationERKNS_11LinkContextEjRNS_21InitializerTimingListERNS_15UninitedUpwardsE
}
{
   <insert_a_suppression_name_here>
   Memcheck:Leak
   match-leak-kinds: reachable
   fun:calloc
   fun:_class_getNonMetaClass
   fun:lookUpImpOrForward
   fun:objc_msgSendSuper_stret
   fun:class_createInstance
   fun:_ZL16attachCategoriesP10objc_classP26locstamped_category_list_tb
   fun:-[__NSDictionaryM setObject:forKey:]
   fun:+[DDDynamicSource registerDynamicSourceClass:forSourceKind:]
   fun:+[DDSpotlightSource load]
   fun:_ZL19_finishInitializingP10objc_classS0_
   fun:NXMapRemove
   fun:_ZN4dyldL12notifySingleE17dyld_image_statesPK11ImageLoader
}
{
   <insert_a_suppression_name_here>
   Memcheck:Leak
   match-leak-kinds: reachable
   fun:calloc
   fun:_class_getNonMetaClass
   fun:lookUpImpOrForward
   fun:objc_msgSendSuper_stret
   fun:class_createInstance
   fun:_ZL16attachCategoriesP10objc_classP26locstamped_category_list_tb
   fun:+[DDDynamicSource registerDynamicSourceClass:forSourceKind:]
   fun:+[DDGeoSource load]
   fun:_ZL19_finishInitializingP10objc_classS0_
   fun:NXMapRemove
   fun:_ZN4dyldL12notifySingleE17dyld_image_statesPK11ImageLoader
   fun:_ZN11ImageLoader23recursiveInitializationERKNS_11LinkContextEjRNS_21InitializerTimingListERNS_15UninitedUpwardsE
}
{
   <insert_a_suppression_name_here>
   Memcheck:Leak
   match-leak-kinds: reachable
   fun:calloc
   fun:_class_getNonMetaClass
   fun:lookUpImpOrForward
   fun:objc_msgSendSuper_stret
   fun:class_createInstance
   fun:_ZL16attachCategoriesP10objc_classP26locstamped_category_list_tb
   fun:____NSThreads_block_invoke
   fun:_dispatch_client_callout
   fun:dispatch_once_f
   fun:_NSThreadGet0
   fun:_NSInitializePlatform
   fun:cache_fill
}
{
   <insert_a_suppression_name_here>
   Memcheck:Leak
   match-leak-kinds: possible
   fun:malloc
   fun:_ZN10objc_class14setHasCustomRREb
   fun:_ZL11addSubclassP10objc_classS0_
   fun:_ZL12realizeClassP10objc_class
   fun:_ZL11_mapStrHashP11_NXMapTablePKv
   fun:objc_release
   fun:_NSToDoAtProcessStart
   fun:_NSInitializePlatform
   fun:cache_fill
   fun:NXMapRemove
   fun:_ZN4dyldL12notifySingleE17dyld_image_statesPK11ImageLoader
   fun:_ZN11ImageLoader23recursiveInitializationERKNS_11LinkContextEjRNS_21InitializerTimingListERNS_15UninitedUpwardsE
}
{
   <insert_a_suppression_name_here>
   Memcheck:Leak
   match-leak-kinds: definite
   fun:malloc_zone_malloc
   fun:_CFRuntimeCreateInstance
   fun:CFBasicHashCreate
   fun:__CFSetCreateGeneric
   fun:CFSetCreate
   fun:_GLOBAL__sub_I_CFURLAuthChallenge.c
   fun:_ZN16ImageLoaderMachO18doModInitFunctionsERKN11ImageLoader11LinkContextE
   fun:_ZN16ImageLoaderMachO16doInitializationERKN11ImageLoader11LinkContextE
   fun:_ZN11ImageLoader23recursiveInitializationERKNS_11LinkContextEjRNS_21InitializerTimingListERNS_15UninitedUpwardsE
   fun:_ZN11ImageLoader23recursiveInitializationERKNS_11LinkContextEjRNS_21InitializerTimingListERNS_15UninitedUpwardsE
   fun:_ZN11ImageLoader23recursiveInitializationERKNS_11LinkContextEjRNS_21InitializerTimingListERNS_15UninitedUpwardsE
   fun:_ZN11ImageLoader23recursiveInitializationERKNS_11LinkContextEjRNS_21InitializerTimingListERNS_15UninitedUpwardsE
}
{
   <insert_a_suppression_name_here>
   Memcheck:Leak
   match-leak-kinds: definite
   fun:malloc_zone_malloc
   fun:_CFRuntimeCreateInstance
   fun:CFBasicHashCreate
   fun:__CFSetCreateGeneric
   fun:CFSetCreate
   fun:_GLOBAL__sub_I_URLAuthChallenge.cpp
   fun:_ZN16ImageLoaderMachO18doModInitFunctionsERKN11ImageLoader11LinkContextE
   fun:_ZN16ImageLoaderMachO16doInitializationERKN11ImageLoader11LinkContextE
   fun:_ZN11ImageLoader23recursiveInitializationERKNS_11LinkContextEjRNS_21InitializerTimingListERNS_15UninitedUpwardsE
   fun:_ZN11ImageLoader23recursiveInitializationERKNS_11LinkContextEjRNS_21InitializerTimingListERNS_15UninitedUpwardsE
   fun:_ZN11ImageLoader23recursiveInitializationERKNS_11LinkContextEjRNS_21InitializerTimingListERNS_15UninitedUpwardsE
   fun:_ZN11ImageLoader23recursiveInitializationERKNS_11LinkContextEjRNS_21InitializerTimingListERNS_15UninitedUpwardsE
}
{
   <insert_a_suppression_name_here>
   Memcheck:Leak
   match-leak-kinds: reachable
   fun:calloc
   fun:_class_getNonMetaClass
   fun:lookUpImpOrForward
   fun:objc_msgSendSuper_stret
   fun:class_createInstance
   fun:_ZL16attachCategoriesP10objc_classP26locstamped_category_list_tb
   fun:-[__NSDictionaryM setObject:forKey:]
   fun:+[DDDynamicSource registerDynamicSourceClass:forSourceKind:]
   fun:+[DDGeoSource load]
   fun:_ZL19_finishInitializingP10objc_classS0_
   fun:NXMapRemove
   fun:_ZN4dyldL12notifySingleE17dyld_image_statesPK11ImageLoader
}
{
   <insert_a_suppression_name_here>
   Memcheck:Leak
   match-leak-kinds: definite
   fun:malloc_zone_malloc
   fun:_CFRuntimeCreateInstance
   fun:CFBasicHashCreate
   fun:__CFSetCreateGeneric
   fun:CFSetCreate
   fun:_GLOBAL__sub_I_URLConnectionLoader.cpp
   fun:_ZN16ImageLoaderMachO18doModInitFunctionsERKN11ImageLoader11LinkContextE
   fun:_ZN16ImageLoaderMachO16doInitializationERKN11ImageLoader11LinkContextE
   fun:_ZN11ImageLoader23recursiveInitializationERKNS_11LinkContextEjRNS_21InitializerTimingListERNS_15UninitedUpwardsE
   fun:_ZN11ImageLoader23recursiveInitializationERKNS_11LinkContextEjRNS_21InitializerTimingListERNS_15UninitedUpwardsE
   fun:_ZN11ImageLoader23recursiveInitializationERKNS_11LinkContextEjRNS_21InitializerTimingListERNS_15UninitedUpwardsE
   fun:_ZN11ImageLoader23recursiveInitializationERKNS_11LinkContextEjRNS_21InitializerTimingListERNS_15UninitedUpwardsE
}
{
   <insert_a_suppression_name_here>
   Memcheck:Leak
   match-leak-kinds: definite
   fun:malloc_zone_malloc
   fun:_CFRuntimeCreateInstance
   fun:CFBasicHashCreate
   fun:__CFSetCreateGeneric
   fun:CFSetCreate
   fun:_GLOBAL__sub_I_Tube.cpp
   fun:_ZN16ImageLoaderMachO18doModInitFunctionsERKN11ImageLoader11LinkContextE
   fun:_ZN16ImageLoaderMachO16doInitializationERKN11ImageLoader11LinkContextE
   fun:_ZN11ImageLoader23recursiveInitializationERKNS_11LinkContextEjRNS_21InitializerTimingListERNS_15UninitedUpwardsE
   fun:_ZN11ImageLoader23recursiveInitializationERKNS_11LinkContextEjRNS_21InitializerTimingListERNS_15UninitedUpwardsE
   fun:_ZN11ImageLoader23recursiveInitializationERKNS_11LinkContextEjRNS_21InitializerTimingListERNS_15UninitedUpwardsE
   fun:_ZN11ImageLoader23recursiveInitializationERKNS_11LinkContextEjRNS_21InitializerTimingListERNS_15UninitedUpwardsE
}
{
   <insert_a_suppression_name_here>
   Memcheck:Leak
   match-leak-kinds: reachable
   fun:calloc
   fun:_ZL12_NXMapMemberP11_NXMapTablePKvPPv
   fun:_ZL11_mapStrHashP11_NXMapTablePKv
   fun:_ZL11_mapStrHashP11_NXMapTablePKv
   fun:objc_release
   fun:__CFMakeNSBlockClasses
   fun:__CFInitialize
   fun:_ZN16ImageLoaderMachO11doImageInitERKN11ImageLoader11LinkContextE
   fun:_ZN16ImageLoaderMachO16doInitializationERKN11ImageLoader11LinkContextE
   fun:_ZN11ImageLoader23recursiveInitializationERKNS_11LinkContextEjRNS_21InitializerTimingListERNS_15UninitedUpwardsE
   fun:_ZN11ImageLoader23recursiveInitializationERKNS_11LinkContextEjRNS_21InitializerTimingListERNS_15UninitedUpwardsE
   fun:_ZN11ImageLoader23recursiveInitializationERKNS_11LinkContextEjRNS_21InitializerTimingListERNS_15UninitedUpwardsE
}
{
   <insert_a_suppression_name_here>
   Memcheck:Leak
   match-leak-kinds: definite
   fun:malloc_zone_malloc
   fun:_CFRuntimeCreateInstance
   fun:CFBasicHashCreate
   fun:__CFSetCreateGeneric
   fun:CFSetCreate
   fun:_GLOBAL__sub_I_NSURLAuthenticationChallenge.mm
   fun:_ZN16ImageLoaderMachO18doModInitFunctionsERKN11ImageLoader11LinkContextE
   fun:_ZN16ImageLoaderMachO16doInitializationERKN11ImageLoader11LinkContextE
   fun:_ZN11ImageLoader23recursiveInitializationERKNS_11LinkContextEjRNS_21InitializerTimingListERNS_15UninitedUpwardsE
   fun:_ZN11ImageLoader23recursiveInitializationERKNS_11LinkContextEjRNS_21InitializerTimingListERNS_15UninitedUpwardsE
   fun:_ZN11ImageLoader23recursiveInitializationERKNS_11LinkContextEjRNS_21InitializerTimingListERNS_15UninitedUpwardsE
   fun:_ZN11ImageLoader23recursiveInitializationERKNS_11LinkContextEjRNS_21InitializerTimingListERNS_15UninitedUpwardsE
}
{
   <insert_a_suppression_name_here>
   Memcheck:Leak
   match-leak-kinds: reachable
   fun:malloc_zone_malloc
   fun:_CFRuntimeCreateInstance
   fun:CFBasicHashCreate
   fun:__CFSetCreateGeneric
   fun:CFSetCreate
   fun:_GLOBAL__sub_I_LocalSession.mm
   fun:_ZN16ImageLoaderMachO18doModInitFunctionsERKN11ImageLoader11LinkContextE
   fun:_ZN16ImageLoaderMachO16doInitializationERKN11ImageLoader11LinkContextE
   fun:_ZN11ImageLoader23recursiveInitializationERKNS_11LinkContextEjRNS_21InitializerTimingListERNS_15UninitedUpwardsE
   fun:_ZN11ImageLoader23recursiveInitializationERKNS_11LinkContextEjRNS_21InitializerTimingListERNS_15UninitedUpwardsE
   fun:_ZN11ImageLoader23recursiveInitializationERKNS_11LinkContextEjRNS_21InitializerTimingListERNS_15UninitedUpwardsE
   fun:_ZN11ImageLoader23recursiveInitializationERKNS_11LinkContextEjRNS_21InitializerTimingListERNS_15UninitedUpwardsE
}
{
   <insert_a_suppression_name_here>
   Memcheck:Leak
   match-leak-kinds: indirect
   fun:malloc_zone_malloc
   fun:__CFBasicHashRehash
   fun:CFSetCreate
   fun:_GLOBAL__sub_I_PersistentCredentialStorage.cpp
   fun:_ZN16ImageLoaderMachO18doModInitFunctionsERKN11ImageLoader11LinkContextE
   fun:_ZN16ImageLoaderMachO16doInitializationERKN11ImageLoader11LinkContextE
   fun:_ZN11ImageLoader23recursiveInitializationERKNS_11LinkContextEjRNS_21InitializerTimingListERNS_15UninitedUpwardsE
   fun:_ZN11ImageLoader23recursiveInitializationERKNS_11LinkContextEjRNS_21InitializerTimingListERNS_15UninitedUpwardsE
   fun:_ZN11ImageLoader23recursiveInitializationERKNS_11LinkContextEjRNS_21InitializerTimingListERNS_15UninitedUpwardsE
   fun:_ZN11ImageLoader23recursiveInitializationERKNS_11LinkContextEjRNS_21InitializerTimingListERNS_15UninitedUpwardsE
   fun:_ZN11ImageLoader23recursiveInitializationERKNS_11LinkContextEjRNS_21InitializerTimingListERNS_15UninitedUpwardsE
   fun:_ZN11ImageLoader23recursiveInitializationERKNS_11LinkContextEjRNS_21InitializerTimingListERNS_15UninitedUpwardsE
}
{
   <insert_a_suppression_name_here>
   Memcheck:Leak
   match-leak-kinds: definite
   fun:malloc_zone_malloc
   fun:_CFRuntimeCreateInstance
   fun:CFBasicHashCreate
   fun:__CFSetCreateGeneric
   fun:CFSetCreate
   fun:_GLOBAL__sub_I_HTTPConnectionCache.cpp
   fun:_ZN16ImageLoaderMachO18doModInitFunctionsERKN11ImageLoader11LinkContextE
   fun:_ZN16ImageLoaderMachO16doInitializationERKN11ImageLoader11LinkContextE
   fun:_ZN11ImageLoader23recursiveInitializationERKNS_11LinkContextEjRNS_21InitializerTimingListERNS_15UninitedUpwardsE
   fun:_ZN11ImageLoader23recursiveInitializationERKNS_11LinkContextEjRNS_21InitializerTimingListERNS_15UninitedUpwardsE
   fun:_ZN11ImageLoader23recursiveInitializationERKNS_11LinkContextEjRNS_21InitializerTimingListERNS_15UninitedUpwardsE
   fun:_ZN11ImageLoader23recursiveInitializationERKNS_11LinkContextEjRNS_21InitializerTimingListERNS_15UninitedUpwardsE
}
{
   <insert_a_suppression_name_here>
   Memcheck:Leak
   match-leak-kinds: reachable
   fun:calloc
   fun:_class_getNonMetaClass
   fun:lookUpImpOrForward
   fun:objc_msgSendSuper2_stret
   fun:class_createInstance
   fun:_ZL16attachCategoriesP10objc_classP26locstamped_category_list_tb
   fun:_ZL22methodListImplementsRRPK13method_list_t
   fun:_ZL19_finishInitializingP10objc_classS0_
   fun:NXMapRemove
   fun:_ZN4dyldL12notifySingleE17dyld_image_statesPK11ImageLoader
   fun:_ZN11ImageLoader23recursiveInitializationERKNS_11LinkContextEjRNS_21InitializerTimingListERNS_15UninitedUpwardsE
   fun:_ZN11ImageLoader23recursiveInitializationERKNS_11LinkContextEjRNS_21InitializerTimingListERNS_15UninitedUpwardsE
}
{
   <insert_a_suppression_name_here>
   Memcheck:Leak
   match-leak-kinds: reachable
   fun:malloc
   fun:_Znwm
   fun:_ZN2cv22getInitializationMutexEv
   fun:_GLOBAL__sub_I_system.cpp
   fun:_ZN16ImageLoaderMachO18doModInitFunctionsERKN11ImageLoader11LinkContextE
   fun:_ZN16ImageLoaderMachO16doInitializationERKN11ImageLoader11LinkContextE
   fun:_ZN11ImageLoader23recursiveInitializationERKNS_11LinkContextEjRNS_21InitializerTimingListERNS_15UninitedUpwardsE
   fun:_ZN11ImageLoader23recursiveInitializationERKNS_11LinkContextEjRNS_21InitializerTimingListERNS_15UninitedUpwardsE
   fun:_ZN11ImageLoader23recursiveInitializationERKNS_11LinkContextEjRNS_21InitializerTimingListERNS_15UninitedUpwardsE
   fun:_ZN11ImageLoader23recursiveInitializationERKNS_11LinkContextEjRNS_21InitializerTimingListERNS_15UninitedUpwardsE
   fun:_ZN11ImageLoader23recursiveInitializationERKNS_11LinkContextEjRNS_21InitializerTimingListERNS_15UninitedUpwardsE
   fun:_ZN11ImageLoader23recursiveInitializationERKNS_11LinkContextEjRNS_21InitializerTimingListERNS_15UninitedUpwardsE
}
{
   <insert_a_suppression_name_here>
   Memcheck:Leak
   match-leak-kinds: reachable
   fun:malloc_zone_malloc
   fun:_CFRuntimeCreateInstance
   fun:CFBasicHashCreate
   fun:__CFSetCreateGeneric
   fun:CFSetCreate
   fun:_GLOBAL__sub_I_CFHTTPFilter.c
   fun:_ZN16ImageLoaderMachO18doModInitFunctionsERKN11ImageLoader11LinkContextE
   fun:_ZN16ImageLoaderMachO16doInitializationERKN11ImageLoader11LinkContextE
   fun:_ZN11ImageLoader23recursiveInitializationERKNS_11LinkContextEjRNS_21InitializerTimingListERNS_15UninitedUpwardsE
   fun:_ZN11ImageLoader23recursiveInitializationERKNS_11LinkContextEjRNS_21InitializerTimingListERNS_15UninitedUpwardsE
   fun:_ZN11ImageLoader23recursiveInitializationERKNS_11LinkContextEjRNS_21InitializerTimingListERNS_15UninitedUpwardsE
   fun:_ZN11ImageLoader23recursiveInitializationERKNS_11LinkContextEjRNS_21InitializerTimingListERNS_15UninitedUpwardsE
}
{
   <insert_a_suppression_name_here>
   Memcheck:Leak
   match-leak-kinds: definite
   fun:malloc_zone_malloc
   fun:_CFRuntimeCreateInstance
   fun:CFBasicHashCreate
   fun:__CFSetCreateGeneric
   fun:CFSetCreate
   fun:_GLOBAL__sub_I_URLDownload.cpp
   fun:_ZN16ImageLoaderMachO18doModInitFunctionsERKN11ImageLoader11LinkContextE
   fun:_ZN16ImageLoaderMachO16doInitializationERKN11ImageLoader11LinkContextE
   fun:_ZN11ImageLoader23recursiveInitializationERKNS_11LinkContextEjRNS_21InitializerTimingListERNS_15UninitedUpwardsE
   fun:_ZN11ImageLoader23recursiveInitializationERKNS_11LinkContextEjRNS_21InitializerTimingListERNS_15UninitedUpwardsE
   fun:_ZN11ImageLoader23recursiveInitializationERKNS_11LinkContextEjRNS_21InitializerTimingListERNS_15UninitedUpwardsE
   fun:_ZN11ImageLoader23recursiveInitializationERKNS_11LinkContextEjRNS_21InitializerTimingListERNS_15UninitedUpwardsE
}
{
   <insert_a_suppression_name_here>
   Memcheck:Leak
   match-leak-kinds: definite
   fun:malloc_zone_malloc
   fun:_CFRuntimeCreateInstance
   fun:CFBasicHashCreate
   fun:__CFSetCreateGeneric
   fun:CFSetCreate
   fun:_GLOBAL__sub_I_SPDYConnection.cpp
   fun:_ZN16ImageLoaderMachO18doModInitFunctionsERKN11ImageLoader11LinkContextE
   fun:_ZN16ImageLoaderMachO16doInitializationERKN11ImageLoader11LinkContextE
   fun:_ZN11ImageLoader23recursiveInitializationERKNS_11LinkContextEjRNS_21InitializerTimingListERNS_15UninitedUpwardsE
   fun:_ZN11ImageLoader23recursiveInitializationERKNS_11LinkContextEjRNS_21InitializerTimingListERNS_15UninitedUpwardsE
   fun:_ZN11ImageLoader23recursiveInitializationERKNS_11LinkContextEjRNS_21InitializerTimingListERNS_15UninitedUpwardsE
   fun:_ZN11ImageLoader23recursiveInitializationERKNS_11LinkContextEjRNS_21InitializerTimingListERNS_15UninitedUpwardsE
}
{
   <insert_a_suppression_name_here>
   Memcheck:Leak
   match-leak-kinds: indirect
   fun:malloc_zone_malloc
   fun:__CFBasicHashRehash
   fun:CFSetCreate
   fun:_GLOBAL__sub_I_URLProtectionSpace.cpp
   fun:_ZN16ImageLoaderMachO18doModInitFunctionsERKN11ImageLoader11LinkContextE
   fun:_ZN16ImageLoaderMachO16doInitializationERKN11ImageLoader11LinkContextE
   fun:_ZN11ImageLoader23recursiveInitializationERKNS_11LinkContextEjRNS_21InitializerTimingListERNS_15UninitedUpwardsE
   fun:_ZN11ImageLoader23recursiveInitializationERKNS_11LinkContextEjRNS_21InitializerTimingListERNS_15UninitedUpwardsE
   fun:_ZN11ImageLoader23recursiveInitializationERKNS_11LinkContextEjRNS_21InitializerTimingListERNS_15UninitedUpwardsE
   fun:_ZN11ImageLoader23recursiveInitializationERKNS_11LinkContextEjRNS_21InitializerTimingListERNS_15UninitedUpwardsE
   fun:_ZN11ImageLoader23recursiveInitializationERKNS_11LinkContextEjRNS_21InitializerTimingListERNS_15UninitedUpwardsE
   fun:_ZN11ImageLoader23recursiveInitializationERKNS_11LinkContextEjRNS_21InitializerTimingListERNS_15UninitedUpwardsE
}
{
   <insert_a_suppression_name_here>
   Memcheck:Leak
   match-leak-kinds: definite
   fun:malloc
   fun:_Znwm
   fun:_ZL18getElapsedWallTimev
   fun:_GLOBAL__sub_I_Process.cpp
   fun:_ZN16ImageLoaderMachO18doModInitFunctionsERKN11ImageLoader11LinkContextE
   fun:_ZN16ImageLoaderMachO16doInitializationERKN11ImageLoader11LinkContextE
   fun:_ZN11ImageLoader23recursiveInitializationERKNS_11LinkContextEjRNS_21InitializerTimingListERNS_15UninitedUpwardsE
   fun:_ZN11ImageLoader23recursiveInitializationERKNS_11LinkContextEjRNS_21InitializerTimingListERNS_15UninitedUpwardsE
   fun:_ZN11ImageLoader23recursiveInitializationERKNS_11LinkContextEjRNS_21InitializerTimingListERNS_15UninitedUpwardsE
   fun:_ZN11ImageLoader23recursiveInitializationERKNS_11LinkContextEjRNS_21InitializerTimingListERNS_15UninitedUpwardsE
   fun:_ZN11ImageLoader23recursiveInitializationERKNS_11LinkContextEjRNS_21InitializerTimingListERNS_15UninitedUpwardsE
   fun:_ZN11ImageLoader23recursiveInitializationERKNS_11LinkContextEjRNS_21InitializerTimingListERNS_15UninitedUpwardsE
}
{
   <insert_a_suppression_name_here>
   Memcheck:Leak
   match-leak-kinds: definite
   fun:malloc_zone_malloc
   fun:_CFRuntimeCreateInstance
   fun:CFBasicHashCreate
   fun:__CFSetCreateGeneric
   fun:CFSetCreate
   fun:_GLOBAL__sub_I_HTTPWriteFilter.cpp
   fun:_ZN16ImageLoaderMachO18doModInitFunctionsERKN11ImageLoader11LinkContextE
   fun:_ZN16ImageLoaderMachO16doInitializationERKN11ImageLoader11LinkContextE
   fun:_ZN11ImageLoader23recursiveInitializationERKNS_11LinkContextEjRNS_21InitializerTimingListERNS_15UninitedUpwardsE
   fun:_ZN11ImageLoader23recursiveInitializationERKNS_11LinkContextEjRNS_21InitializerTimingListERNS_15UninitedUpwardsE
   fun:_ZN11ImageLoader23recursiveInitializationERKNS_11LinkContextEjRNS_21InitializerTimingListERNS_15UninitedUpwardsE
   fun:_ZN11ImageLoader23recursiveInitializationERKNS_11LinkContextEjRNS_21InitializerTimingListERNS_15UninitedUpwardsE
}
{
   <insert_a_suppression_name_here>
   Memcheck:Leak
   match-leak-kinds: possible
   fun:malloc
   fun:_ZL12realizeClassP10objc_class
   fun:_ZL11addSubclassP10objc_classS0_
   fun:_ZL12realizeClassP10objc_class
   fun:_ZL11_mapStrHashP11_NXMapTablePKv
   fun:objc_release
   fun:_NSToDoAtProcessStart
   fun:_NSInitializePlatform
   fun:cache_fill
   fun:NXMapRemove
   fun:_ZN4dyldL12notifySingleE17dyld_image_statesPK11ImageLoader
   fun:_ZN11ImageLoader23recursiveInitializationERKNS_11LinkContextEjRNS_21InitializerTimingListERNS_15UninitedUpwardsE
}
{
   <insert_a_suppression_name_here>
   Memcheck:Leak
   match-leak-kinds: definite
   fun:calloc
   fun:NXMapRemove
   fun:NSAllocateObject
   fun:+[NSString initialize]
   fun:objc_msgSend_fpret
   fun:objc_msgSendSuper
   fun:_Z28_getObjc2NonlazyCategoryListPK14mach_header_64Pm
   fun:_ZL16attachCategoriesP10objc_classP26locstamped_category_list_tb
   fun:+[NSMutableString initialize]
   fun:objc_msgSend_fpret
   fun:_Z28_getObjc2NonlazyCategoryListPK14mach_header_64Pm
   fun:_ZL16attachCategoriesP10objc_classP26locstamped_category_list_tb
}
{
   <insert_a_suppression_name_here>
   Memcheck:Leak
   match-leak-kinds: definite
   fun:malloc_zone_malloc
   fun:_CFRuntimeCreateInstance
   fun:CFBasicHashCreate
   fun:__CFSetCreateGeneric
   fun:CFSetCreate
   fun:_GLOBAL__sub_I_URLConnectionClient.cpp
   fun:_ZN16ImageLoaderMachO18doModInitFunctionsERKN11ImageLoader11LinkContextE
   fun:_ZN16ImageLoaderMachO16doInitializationERKN11ImageLoader11LinkContextE
   fun:_ZN11ImageLoader23recursiveInitializationERKNS_11LinkContextEjRNS_21InitializerTimingListERNS_15UninitedUpwardsE
   fun:_ZN11ImageLoader23recursiveInitializationERKNS_11LinkContextEjRNS_21InitializerTimingListERNS_15UninitedUpwardsE
   fun:_ZN11ImageLoader23recursiveInitializationERKNS_11LinkContextEjRNS_21InitializerTimingListERNS_15UninitedUpwardsE
   fun:_ZN11ImageLoader23recursiveInitializationERKNS_11LinkContextEjRNS_21InitializerTimingListERNS_15UninitedUpwardsE
}
{
   <insert_a_suppression_name_here>
   Memcheck:Leak
   match-leak-kinds: definite
   fun:malloc_zone_malloc
   fun:_CFRuntimeCreateInstance
   fun:CFBasicHashCreate
   fun:__CFSetCreateGeneric
   fun:CFSetCreate
   fun:_GLOBAL__sub_I_SHTTP2Callbacks.cpp
   fun:_ZN16ImageLoaderMachO18doModInitFunctionsERKN11ImageLoader11LinkContextE
   fun:_ZN16ImageLoaderMachO16doInitializationERKN11ImageLoader11LinkContextE
   fun:_ZN11ImageLoader23recursiveInitializationERKNS_11LinkContextEjRNS_21InitializerTimingListERNS_15UninitedUpwardsE
   fun:_ZN11ImageLoader23recursiveInitializationERKNS_11LinkContextEjRNS_21InitializerTimingListERNS_15UninitedUpwardsE
   fun:_ZN11ImageLoader23recursiveInitializationERKNS_11LinkContextEjRNS_21InitializerTimingListERNS_15UninitedUpwardsE
   fun:_ZN11ImageLoader23recursiveInitializationERKNS_11LinkContextEjRNS_21InitializerTimingListERNS_15UninitedUpwardsE
}
{
   <insert_a_suppression_name_here>
   Memcheck:Leak
   match-leak-kinds: reachable
   fun:malloc_zone_malloc
   fun:__CFBasicHashRehash
   fun:CFSetCreate
   fun:_GLOBAL__sub_I_LocalSession.mm
   fun:_ZN16ImageLoaderMachO18doModInitFunctionsERKN11ImageLoader11LinkContextE
   fun:_ZN16ImageLoaderMachO16doInitializationERKN11ImageLoader11LinkContextE
   fun:_ZN11ImageLoader23recursiveInitializationERKNS_11LinkContextEjRNS_21InitializerTimingListERNS_15UninitedUpwardsE
   fun:_ZN11ImageLoader23recursiveInitializationERKNS_11LinkContextEjRNS_21InitializerTimingListERNS_15UninitedUpwardsE
   fun:_ZN11ImageLoader23recursiveInitializationERKNS_11LinkContextEjRNS_21InitializerTimingListERNS_15UninitedUpwardsE
   fun:_ZN11ImageLoader23recursiveInitializationERKNS_11LinkContextEjRNS_21InitializerTimingListERNS_15UninitedUpwardsE
   fun:_ZN11ImageLoader23recursiveInitializationERKNS_11LinkContextEjRNS_21InitializerTimingListERNS_15UninitedUpwardsE
   fun:_ZN11ImageLoader23recursiveInitializationERKNS_11LinkContextEjRNS_21InitializerTimingListERNS_15UninitedUpwardsE
}
{
   <insert_a_suppression_name_here>
   Memcheck:Leak
   match-leak-kinds: indirect
   fun:malloc_zone_malloc
   fun:__CFUniCharGetUnicodePropertyDataForPlane_block_invoke
   fun:_dispatch_client_callout
   fun:dispatch_once_f
   fun:CFUniCharGetNumberOfPlanesForUnicodePropertyData
   fun:__CFUniCharLoadDecompositionTable
   fun:CFUniCharDecompose
   fun:CFStringGetFileSystemRepresentation
   fun:_CFURLCreateWithFileSystemPath
   fun:_CFBundleCopyBundleURLForExecutableURL
   fun:_CFBundleGetMainBundleAlreadyLocked
   fun:CFBundleGetMainBundle
}
{
   <insert_a_suppression_name_here>
   Memcheck:Leak
   match-leak-kinds: possible
   fun:malloc
   fun:_ZL12realizeClassP10objc_class
   fun:_ZL12realizeClassP10objc_class
   fun:_ZL12realizeClassP10objc_class
   fun:objc_release
   fun:_object_remove_assocations
   fun:__CFInitialize
   fun:_ZN16ImageLoaderMachO11doImageInitERKN11ImageLoader11LinkContextE
   fun:_ZN16ImageLoaderMachO16doInitializationERKN11ImageLoader11LinkContextE
   fun:_ZN11ImageLoader23recursiveInitializationERKNS_11LinkContextEjRNS_21InitializerTimingListERNS_15UninitedUpwardsE
   fun:_ZN11ImageLoader23recursiveInitializationERKNS_11LinkContextEjRNS_21InitializerTimingListERNS_15UninitedUpwardsE
   fun:_ZN11ImageLoader23recursiveInitializationERKNS_11LinkContextEjRNS_21InitializerTimingListERNS_15UninitedUpwardsE
}
{
   <insert_a_suppression_name_here>
   Memcheck:Leak
   match-leak-kinds: indirect
   fun:malloc_zone_malloc
   fun:__CFBasicHashRehash
   fun:CFSetCreate
   fun:_GLOBAL__sub_I_URLCredentialXMobileMeAuthToken.cpp
   fun:_ZN16ImageLoaderMachO18doModInitFunctionsERKN11ImageLoader11LinkContextE
   fun:_ZN16ImageLoaderMachO16doInitializationERKN11ImageLoader11LinkContextE
   fun:_ZN11ImageLoader23recursiveInitializationERKNS_11LinkContextEjRNS_21InitializerTimingListERNS_15UninitedUpwardsE
   fun:_ZN11ImageLoader23recursiveInitializationERKNS_11LinkContextEjRNS_21InitializerTimingListERNS_15UninitedUpwardsE
   fun:_ZN11ImageLoader23recursiveInitializationERKNS_11LinkContextEjRNS_21InitializerTimingListERNS_15UninitedUpwardsE
   fun:_ZN11ImageLoader23recursiveInitializationERKNS_11LinkContextEjRNS_21InitializerTimingListERNS_15UninitedUpwardsE
   fun:_ZN11ImageLoader23recursiveInitializationERKNS_11LinkContextEjRNS_21InitializerTimingListERNS_15UninitedUpwardsE
   fun:_ZN11ImageLoader23recursiveInitializationERKNS_11LinkContextEjRNS_21InitializerTimingListERNS_15UninitedUpwardsE
}
{
   <insert_a_suppression_name_here>
   Memcheck:Leak
   match-leak-kinds: definite
   fun:malloc_zone_malloc
   fun:_CFRuntimeCreateInstance
   fun:CFBasicHashCreate
   fun:__CFSetCreateGeneric
   fun:CFSetCreate
   fun:_GLOBAL__sub_I_SSPDYConnection.cpp
   fun:_ZN16ImageLoaderMachO18doModInitFunctionsERKN11ImageLoader11LinkContextE
   fun:_ZN16ImageLoaderMachO16doInitializationERKN11ImageLoader11LinkContextE
   fun:_ZN11ImageLoader23recursiveInitializationERKNS_11LinkContextEjRNS_21InitializerTimingListERNS_15UninitedUpwardsE
   fun:_ZN11ImageLoader23recursiveInitializationERKNS_11LinkContextEjRNS_21InitializerTimingListERNS_15UninitedUpwardsE
   fun:_ZN11ImageLoader23recursiveInitializationERKNS_11LinkContextEjRNS_21InitializerTimingListERNS_15UninitedUpwardsE
   fun:_ZN11ImageLoader23recursiveInitializationERKNS_11LinkContextEjRNS_21InitializerTimingListERNS_15UninitedUpwardsE
}
{
   <insert_a_suppression_name_here>
   Memcheck:Leak
   match-leak-kinds: reachable
   fun:calloc
   fun:_ZL12_NXMapMemberP11_NXMapTablePKvPPv
   fun:cache_getImp
   fun:_Z28_getObjc2NonlazyCategoryListPK14mach_header_64Pm
   fun:_ZL16attachCategoriesP10objc_classP26locstamped_category_list_tb
   fun:_ZN12_GLOBAL__N_119AutoreleasePoolPage3popEPv
   fun:-[NSThread init]
   fun:____NSThreads_block_invoke
   fun:_dispatch_client_callout
   fun:dispatch_once_f
   fun:_NSThreadGet0
   fun:_NSInitializePlatform
}
{
   <insert_a_suppression_name_here>
   Memcheck:Leak
   match-leak-kinds: indirect
   fun:malloc_zone_malloc
   fun:__CFBasicHashRehash
   fun:CFSetCreate
   fun:_GLOBAL__sub_I_URLAuthChallenge.cpp
   fun:_ZN16ImageLoaderMachO18doModInitFunctionsERKN11ImageLoader11LinkContextE
   fun:_ZN16ImageLoaderMachO16doInitializationERKN11ImageLoader11LinkContextE
   fun:_ZN11ImageLoader23recursiveInitializationERKNS_11LinkContextEjRNS_21InitializerTimingListERNS_15UninitedUpwardsE
   fun:_ZN11ImageLoader23recursiveInitializationERKNS_11LinkContextEjRNS_21InitializerTimingListERNS_15UninitedUpwardsE
   fun:_ZN11ImageLoader23recursiveInitializationERKNS_11LinkContextEjRNS_21InitializerTimingListERNS_15UninitedUpwardsE
   fun:_ZN11ImageLoader23recursiveInitializationERKNS_11LinkContextEjRNS_21InitializerTimingListERNS_15UninitedUpwardsE
   fun:_ZN11ImageLoader23recursiveInitializationERKNS_11LinkContextEjRNS_21InitializerTimingListERNS_15UninitedUpwardsE
   fun:_ZN11ImageLoader23recursiveInitializationERKNS_11LinkContextEjRNS_21InitializerTimingListERNS_15UninitedUpwardsE
}
{
   <insert_a_suppression_name_here>
   Memcheck:Leak
   match-leak-kinds: indirect
   fun:malloc_zone_malloc
   fun:__CFBasicHashRehash
   fun:CFSetCreate
   fun:_GLOBAL__sub_I_HTTPNetConnection.cpp
   fun:_ZN16ImageLoaderMachO18doModInitFunctionsERKN11ImageLoader11LinkContextE
   fun:_ZN16ImageLoaderMachO16doInitializationERKN11ImageLoader11LinkContextE
   fun:_ZN11ImageLoader23recursiveInitializationERKNS_11LinkContextEjRNS_21InitializerTimingListERNS_15UninitedUpwardsE
   fun:_ZN11ImageLoader23recursiveInitializationERKNS_11LinkContextEjRNS_21InitializerTimingListERNS_15UninitedUpwardsE
   fun:_ZN11ImageLoader23recursiveInitializationERKNS_11LinkContextEjRNS_21InitializerTimingListERNS_15UninitedUpwardsE
   fun:_ZN11ImageLoader23recursiveInitializationERKNS_11LinkContextEjRNS_21InitializerTimingListERNS_15UninitedUpwardsE
   fun:_ZN11ImageLoader23recursiveInitializationERKNS_11LinkContextEjRNS_21InitializerTimingListERNS_15UninitedUpwardsE
   fun:_ZN11ImageLoader23recursiveInitializationERKNS_11LinkContextEjRNS_21InitializerTimingListERNS_15UninitedUpwardsE
}
{
   <insert_a_suppression_name_here>
   Memcheck:Leak
   match-leak-kinds: definite
   fun:malloc_zone_malloc
   fun:_CFRuntimeCreateInstance
   fun:CFBasicHashCreate
   fun:__CFSetCreateGeneric
   fun:CFSetCreate
   fun:_GLOBAL__sub_I_HTTP2ConnectionCache.cpp
   fun:_ZN16ImageLoaderMachO18doModInitFunctionsERKN11ImageLoader11LinkContextE
   fun:_ZN16ImageLoaderMachO16doInitializationERKN11ImageLoader11LinkContextE
   fun:_ZN11ImageLoader23recursiveInitializationERKNS_11LinkContextEjRNS_21InitializerTimingListERNS_15UninitedUpwardsE
   fun:_ZN11ImageLoader23recursiveInitializationERKNS_11LinkContextEjRNS_21InitializerTimingListERNS_15UninitedUpwardsE
   fun:_ZN11ImageLoader23recursiveInitializationERKNS_11LinkContextEjRNS_21InitializerTimingListERNS_15UninitedUpwardsE
   fun:_ZN11ImageLoader23recursiveInitializationERKNS_11LinkContextEjRNS_21InitializerTimingListERNS_15UninitedUpwardsE
}
{
   <insert_a_suppression_name_here>
   Memcheck:Leak
   match-leak-kinds: definite
   fun:malloc_zone_malloc
   fun:_CFRuntimeCreateInstance
   fun:CFBasicHashCreate
   fun:__CFSetCreateGeneric
   fun:CFSetCreate
   fun:_GLOBAL__sub_I_HTTP2ConnectionCacheEntry.cpp
   fun:_ZN16ImageLoaderMachO18doModInitFunctionsERKN11ImageLoader11LinkContextE
   fun:_ZN16ImageLoaderMachO16doInitializationERKN11ImageLoader11LinkContextE
   fun:_ZN11ImageLoader23recursiveInitializationERKNS_11LinkContextEjRNS_21InitializerTimingListERNS_15UninitedUpwardsE
   fun:_ZN11ImageLoader23recursiveInitializationERKNS_11LinkContextEjRNS_21InitializerTimingListERNS_15UninitedUpwardsE
   fun:_ZN11ImageLoader23recursiveInitializationERKNS_11LinkContextEjRNS_21InitializerTimingListERNS_15UninitedUpwardsE
   fun:_ZN11ImageLoader23recursiveInitializationERKNS_11LinkContextEjRNS_21InitializerTimingListERNS_15UninitedUpwardsE
}
{
   <insert_a_suppression_name_here>
   Memcheck:Leak
   match-leak-kinds: indirect
   fun:malloc_zone_malloc
   fun:__CFBasicHashRehash
   fun:CFSetCreate
   fun:_GLOBAL__sub_I_HTTPConnectionCache.cpp
   fun:_ZN16ImageLoaderMachO18doModInitFunctionsERKN11ImageLoader11LinkContextE
   fun:_ZN16ImageLoaderMachO16doInitializationERKN11ImageLoader11LinkContextE
   fun:_ZN11ImageLoader23recursiveInitializationERKNS_11LinkContextEjRNS_21InitializerTimingListERNS_15UninitedUpwardsE
   fun:_ZN11ImageLoader23recursiveInitializationERKNS_11LinkContextEjRNS_21InitializerTimingListERNS_15UninitedUpwardsE
   fun:_ZN11ImageLoader23recursiveInitializationERKNS_11LinkContextEjRNS_21InitializerTimingListERNS_15UninitedUpwardsE
   fun:_ZN11ImageLoader23recursiveInitializationERKNS_11LinkContextEjRNS_21InitializerTimingListERNS_15UninitedUpwardsE
   fun:_ZN11ImageLoader23recursiveInitializationERKNS_11LinkContextEjRNS_21InitializerTimingListERNS_15UninitedUpwardsE
   fun:_ZN11ImageLoader23recursiveInitializationERKNS_11LinkContextEjRNS_21InitializerTimingListERNS_15UninitedUpwardsE
}
{
   <insert_a_suppression_name_here>
   Memcheck:Leak
   match-leak-kinds: reachable
   fun:calloc
   fun:_ZL12_NXMapMemberP11_NXMapTablePKvPPv
   fun:_ZL11_mapStrHashP11_NXMapTablePKv
   fun:objc_release
   fun:___NSSetupDispatchDataBridge_block_invoke
   fun:_dispatch_client_callout
   fun:dispatch_once_f
   fun:cache_fill
   fun:NXMapRemove
   fun:_ZN4dyldL12notifySingleE17dyld_image_statesPK11ImageLoader
   fun:_ZN11ImageLoader23recursiveInitializationERKNS_11LinkContextEjRNS_21InitializerTimingListERNS_15UninitedUpwardsE
   fun:_ZN11ImageLoader23recursiveInitializationERKNS_11LinkContextEjRNS_21InitializerTimingListERNS_15UninitedUpwardsE
}
{
   <insert_a_suppression_name_here>
   Memcheck:Leak
   match-leak-kinds: possible
   fun:calloc
   fun:_ZL12_NXMapMemberP11_NXMapTablePKvPPv
   fun:cache_getImp
   fun:_Z28_getObjc2NonlazyCategoryListPK14mach_header_64Pm
   fun:_ZL16attachCategoriesP10objc_classP26locstamped_category_list_tb
   fun:-[__NSPlaceholderDictionary initWithCapacity:]
   fun:-[NSThread init]
   fun:____NSThreads_block_invoke
   fun:_dispatch_client_callout
   fun:dispatch_once_f
   fun:_NSThreadGet0
   fun:_NSInitializePlatform
}
{
   <insert_a_suppression_name_here>
   Memcheck:Leak
   match-leak-kinds: indirect
   fun:malloc_zone_malloc
   fun:__CFBasicHashRehash
   fun:CFSetCreate
   fun:_GLOBAL__sub_I_DataProtocol.cpp
   fun:_ZN16ImageLoaderMachO18doModInitFunctionsERKN11ImageLoader11LinkContextE
   fun:_ZN16ImageLoaderMachO16doInitializationERKN11ImageLoader11LinkContextE
   fun:_ZN11ImageLoader23recursiveInitializationERKNS_11LinkContextEjRNS_21InitializerTimingListERNS_15UninitedUpwardsE
   fun:_ZN11ImageLoader23recursiveInitializationERKNS_11LinkContextEjRNS_21InitializerTimingListERNS_15UninitedUpwardsE
   fun:_ZN11ImageLoader23recursiveInitializationERKNS_11LinkContextEjRNS_21InitializerTimingListERNS_15UninitedUpwardsE
   fun:_ZN11ImageLoader23recursiveInitializationERKNS_11LinkContextEjRNS_21InitializerTimingListERNS_15UninitedUpwardsE
   fun:_ZN11ImageLoader23recursiveInitializationERKNS_11LinkContextEjRNS_21InitializerTimingListERNS_15UninitedUpwardsE
   fun:_ZN11ImageLoader23recursiveInitializationERKNS_11LinkContextEjRNS_21InitializerTimingListERNS_15UninitedUpwardsE
}
{
   <insert_a_suppression_name_here>
   Memcheck:Leak
   match-leak-kinds: reachable
   fun:malloc_zone_malloc
   fun:_CFRuntimeCreateInstance
   fun:CFBasicHashCreate
   fun:__CFDictionaryCreateGeneric
   fun:CFDictionaryCreateMutable
   fun:DDLookupTableRegisterDynamicTableNames
   fun:+[DDGeoSource load]
   fun:_ZL19_finishInitializingP10objc_classS0_
   fun:NXMapRemove
   fun:_ZN4dyldL12notifySingleE17dyld_image_statesPK11ImageLoader
   fun:_ZN11ImageLoader23recursiveInitializationERKNS_11LinkContextEjRNS_21InitializerTimingListERNS_15UninitedUpwardsE
   fun:_ZN11ImageLoader23recursiveInitializationERKNS_11LinkContextEjRNS_21InitializerTimingListERNS_15UninitedUpwardsE
}
{
   <insert_a_suppression_name_here>
   Memcheck:Leak
   match-leak-kinds: indirect
   fun:malloc_zone_malloc
   fun:__CFBasicHashRehash
   fun:CFSetCreate
   fun:_GLOBAL__sub_I_URLCredentialInternetPassword.cpp
   fun:_ZN16ImageLoaderMachO18doModInitFunctionsERKN11ImageLoader11LinkContextE
   fun:_ZN16ImageLoaderMachO16doInitializationERKN11ImageLoader11LinkContextE
   fun:_ZN11ImageLoader23recursiveInitializationERKNS_11LinkContextEjRNS_21InitializerTimingListERNS_15UninitedUpwardsE
   fun:_ZN11ImageLoader23recursiveInitializationERKNS_11LinkContextEjRNS_21InitializerTimingListERNS_15UninitedUpwardsE
   fun:_ZN11ImageLoader23recursiveInitializationERKNS_11LinkContextEjRNS_21InitializerTimingListERNS_15UninitedUpwardsE
   fun:_ZN11ImageLoader23recursiveInitializationERKNS_11LinkContextEjRNS_21InitializerTimingListERNS_15UninitedUpwardsE
   fun:_ZN11ImageLoader23recursiveInitializationERKNS_11LinkContextEjRNS_21InitializerTimingListERNS_15UninitedUpwardsE
   fun:_ZN11ImageLoader23recursiveInitializationERKNS_11LinkContextEjRNS_21InitializerTimingListERNS_15UninitedUpwardsE
}
{
   <insert_a_suppression_name_here>
   Memcheck:Leak
   match-leak-kinds: definite
   fun:malloc_zone_malloc
   fun:_CFRuntimeCreateInstance
   fun:CFBasicHashCreate
   fun:__CFSetCreateGeneric
   fun:CFSetCreate
   fun:_GLOBAL__sub_I_Schedulables.cpp
   fun:_ZN16ImageLoaderMachO18doModInitFunctionsERKN11ImageLoader11LinkContextE
   fun:_ZN16ImageLoaderMachO16doInitializationERKN11ImageLoader11LinkContextE
   fun:_ZN11ImageLoader23recursiveInitializationERKNS_11LinkContextEjRNS_21InitializerTimingListERNS_15UninitedUpwardsE
   fun:_ZN11ImageLoader23recursiveInitializationERKNS_11LinkContextEjRNS_21InitializerTimingListERNS_15UninitedUpwardsE
   fun:_ZN11ImageLoader23recursiveInitializationERKNS_11LinkContextEjRNS_21InitializerTimingListERNS_15UninitedUpwardsE
   fun:_ZN11ImageLoader23recursiveInitializationERKNS_11LinkContextEjRNS_21InitializerTimingListERNS_15UninitedUpwardsE
}
{
   <insert_a_suppression_name_here>
   Memcheck:Leak
   match-leak-kinds: definite
   fun:malloc_zone_malloc
   fun:_CFRuntimeCreateInstance
   fun:CFBasicHashCreate
   fun:__CFInitialize
   fun:_ZN16ImageLoaderMachO11doImageInitERKN11ImageLoader11LinkContextE
   fun:_ZN16ImageLoaderMachO16doInitializationERKN11ImageLoader11LinkContextE
   fun:_ZN11ImageLoader23recursiveInitializationERKNS_11LinkContextEjRNS_21InitializerTimingListERNS_15UninitedUpwardsE
   fun:_ZN11ImageLoader23recursiveInitializationERKNS_11LinkContextEjRNS_21InitializerTimingListERNS_15UninitedUpwardsE
   fun:_ZN11ImageLoader23recursiveInitializationERKNS_11LinkContextEjRNS_21InitializerTimingListERNS_15UninitedUpwardsE
   fun:_ZN11ImageLoader23recursiveInitializationERKNS_11LinkContextEjRNS_21InitializerTimingListERNS_15UninitedUpwardsE
   fun:_ZN11ImageLoader23recursiveInitializationERKNS_11LinkContextEjRNS_21InitializerTimingListERNS_15UninitedUpwardsE
   fun:_ZN11ImageLoader23recursiveInitializationERKNS_11LinkContextEjRNS_21InitializerTimingListERNS_15UninitedUpwardsE
}
{
   <insert_a_suppression_name_here>
   Memcheck:Leak
   match-leak-kinds: definite
   fun:calloc
   fun:objc_msgSend_stret
   fun:objc_msgSend_fp2ret
   fun:objc_msgSendSuper2
   fun:objc_msgSendSuper
   fun:_ZN11objc_object27sidetable_clearDeallocatingEv
   fun:_CFRuntimeCreateInstance
   fun:CFBasicHashCreate
   fun:__CFInitialize
   fun:_ZN16ImageLoaderMachO11doImageInitERKN11ImageLoader11LinkContextE
   fun:_ZN16ImageLoaderMachO16doInitializationERKN11ImageLoader11LinkContextE
   fun:_ZN11ImageLoader23recursiveInitializationERKNS_11LinkContextEjRNS_21InitializerTimingListERNS_15UninitedUpwardsE
}
{
   <insert_a_suppression_name_here>
   Memcheck:Leak
   match-leak-kinds: reachable
   fun:calloc
   fun:_class_getNonMetaClass
   fun:lookUpImpOrForward
   fun:objc_msgSendSuper_stret
   fun:class_createInstance
   fun:_ZL16attachCategoriesP10objc_classP26locstamped_category_list_tb
   fun:+[NSBinder load]
   fun:_ZL19_finishInitializingP10objc_classS0_
   fun:NXMapRemove
   fun:_ZN4dyldL12notifySingleE17dyld_image_statesPK11ImageLoader
   fun:_ZN11ImageLoader23recursiveInitializationERKNS_11LinkContextEjRNS_21InitializerTimingListERNS_15UninitedUpwardsE
   fun:_ZN11ImageLoader23recursiveInitializationERKNS_11LinkContextEjRNS_21InitializerTimingListERNS_15UninitedUpwardsE
}
{
   <insert_a_suppression_name_here>
   Memcheck:Leak
   match-leak-kinds: reachable
   fun:calloc
   fun:_class_getNonMetaClass
   fun:lookUpImpOrForward
   fun:objc_msgSendSuper2_stret
   fun:class_createInstance
   fun:_ZL16attachCategoriesP10objc_classP26locstamped_category_list_tb
   fun:-[__NSDictionaryM setObject:forKey:]
   fun:+[DDDynamicSource registerDynamicSourceClass:forSourceKind:]
   fun:+[DDSpotlightSource load]
   fun:_ZL19_finishInitializingP10objc_classS0_
   fun:NXMapRemove
   fun:_ZN4dyldL12notifySingleE17dyld_image_statesPK11ImageLoader
}
{
   <insert_a_suppression_name_here>
   Memcheck:Leak
   match-leak-kinds: definite
   fun:malloc_zone_malloc
   fun:_CFRuntimeCreateInstance
   fun:CFBasicHashCreate
   fun:__CFSetCreateGeneric
   fun:CFSetCreate
   fun:_GLOBAL__sub_I_URLCredential.cpp
   fun:_ZN16ImageLoaderMachO18doModInitFunctionsERKN11ImageLoader11LinkContextE
   fun:_ZN16ImageLoaderMachO16doInitializationERKN11ImageLoader11LinkContextE
   fun:_ZN11ImageLoader23recursiveInitializationERKNS_11LinkContextEjRNS_21InitializerTimingListERNS_15UninitedUpwardsE
   fun:_ZN11ImageLoader23recursiveInitializationERKNS_11LinkContextEjRNS_21InitializerTimingListERNS_15UninitedUpwardsE
   fun:_ZN11ImageLoader23recursiveInitializationERKNS_11LinkContextEjRNS_21InitializerTimingListERNS_15UninitedUpwardsE
   fun:_ZN11ImageLoader23recursiveInitializationERKNS_11LinkContextEjRNS_21InitializerTimingListERNS_15UninitedUpwardsE
}
{
   <insert_a_suppression_name_here>
   Memcheck:Leak
   match-leak-kinds: definite
   fun:calloc
   fun:NXMapRemove
   fun:NSAllocateObject
   fun:+[NSMutableString initialize]
   fun:objc_msgSend_fpret
   fun:_Z28_getObjc2NonlazyCategoryListPK14mach_header_64Pm
   fun:_ZL16attachCategoriesP10objc_classP26locstamped_category_list_tb
   fun:+[NSMutableString initialize]
   fun:objc_msgSend_fpret
   fun:_Z28_getObjc2NonlazyCategoryListPK14mach_header_64Pm
   fun:_ZL16attachCategoriesP10objc_classP26locstamped_category_list_tb
   fun:+[__NSDictionaryI __new:::::]
}
{
   <insert_a_suppression_name_here>
   Memcheck:Leak
   match-leak-kinds: indirect
   fun:malloc_zone_malloc
   fun:__CFBasicHashRehash
   fun:CFSetCreate
   fun:_GLOBAL__sub_I_CFURLCache.mm
   fun:_ZN16ImageLoaderMachO18doModInitFunctionsERKN11ImageLoader11LinkContextE
   fun:_ZN16ImageLoaderMachO16doInitializationERKN11ImageLoader11LinkContextE
   fun:_ZN11ImageLoader23recursiveInitializationERKNS_11LinkContextEjRNS_21InitializerTimingListERNS_15UninitedUpwardsE
   fun:_ZN11ImageLoader23recursiveInitializationERKNS_11LinkContextEjRNS_21InitializerTimingListERNS_15UninitedUpwardsE
   fun:_ZN11ImageLoader23recursiveInitializationERKNS_11LinkContextEjRNS_21InitializerTimingListERNS_15UninitedUpwardsE
   fun:_ZN11ImageLoader23recursiveInitializationERKNS_11LinkContextEjRNS_21InitializerTimingListERNS_15UninitedUpwardsE
   fun:_ZN11ImageLoader23recursiveInitializationERKNS_11LinkContextEjRNS_21InitializerTimingListERNS_15UninitedUpwardsE
   fun:_ZN11ImageLoader23recursiveInitializationERKNS_11LinkContextEjRNS_21InitializerTimingListERNS_15UninitedUpwardsE
}
